(lp0
(I100210
I1
I0
tp1
a(I100210
I3
I1
tp2
a(I121025
I1
I1
tp3
a(I187273
I1
I0
tp4
a(I187273
I3
I0
tp5
a(I227461
I1
I1
tp6
a(I296055
I0
I1
tp7
a(I296499
I1
I0
tp8
a(I324214
I1
I1
tp9
a(I359903
I1
I1
tp10
a(I465144
I1
I0
tp11
a(I508657
I1
I1
tp12
a(I508657
I4
I0
tp13
a(I544923
I1
I0
tp14
a(I555344
I0
I1
tp15
a(I555344
I1
I1
tp16
a(I572263
I0
I0
tp17
a(I582723
I1
I0
tp18
a(I645864
I0
I0
tp19
a(I645864
I2
I0
tp20
a(I645864
I3
I0
tp21
a(I682504
I0
I1
tp22
a(I682504
I1
I1
tp23
a(I682504
I2
I0
tp24
a(I706755
I1
I1
tp25
a(I706813
I0
I1
tp26
a(I706813
I1
I1
tp27
a(I765305
I0
I1
tp28
a(I870652
I0
I1
tp29
a(I897362
I0
I1
tp30
a(I897362
I1
I0
tp31
a(I899138
I0
I0
tp32
a(I899138
I2
I0
tp33
a(I933612
I3
I0
tp34
a(I933612
I4
I0
tp35
a(I933612
I5
I0
tp36
a(I956820
I0
I0
tp37
a(I973481
I2
I0
tp38
a(I973481
I3
I0
tp39
a(I1008038
I1
I0
tp40
a(I1029207
I0
I0
tp41
a(I1042751
I0
I1
tp42
a(I1042751
I1
I1
tp43
a(I1060193
I2
I0
tp44
a(I1060193
I3
I0
tp45
a(I1123337
I1
I0
tp46
a(I1144702
I2
I1
tp47
a(I1175208
I0
I1
tp48
a(I1305532
I0
I1
tp49
a(I1389180
I3
I0
tp50
a(I1423251
I0
I0
tp51
a(I1423251
I1
I0
tp52
a(I1423251
I2
I0
tp53
a(I1448820
I2
I0
tp54
a(I1448820
I3
I0
tp55
a(I1470453
I0
I1
tp56
a(I1470453
I1
I0
tp57
a(I1527689
I0
I1
tp58
a(I1527689
I1
I0
tp59
a(I1527689
I3
I0
tp60
a(I1606436
I2
I0
tp61
a(I1738633
I0
I1
tp62
a(I1767565
I0
I0
tp63
a(I1767565
I1
I0
tp64
a(I1767565
I2
I0
tp65
a(I1777344
I0
I1
tp66
a(I1781554
I0
I1
tp67
a(I1783251
I0
I0
tp68
a(I1783251
I3
I0
tp69
a(I1822934
I2
I0
tp70
a(I1933784
I0
I1
tp71
a(I1933784
I1
I0
tp72
a(I1938894
I1
I1
tp73
a(I2005234
I2
I0
tp74
a(I2005759
I1
I0
tp75
a(I2012611
I0
I1
tp76
a(I2034584
I0
I1
tp77
a(I2082387
I2
I1
tp78
a(I2082387
I3
I0
tp79
a(I2126551
I0
I1
tp80
a(I2148119
I0
I1
tp81
a(I2170228
I1
I0
tp82
a(I2192658
I1
I0
tp83
a(I2192658
I2
I0
tp84
a(I2192658
I3
I0
tp85
a(I2203351
I0
I1
tp86
a(I2237624
I1
I0
tp87
a(I2237624
I2
I0
tp88
a(I2255177
I0
I0
tp89
a(I2255177
I1
I0
tp90
a(I2257101
I0
I0
tp91
a(I2286557
I1
I1
tp92
a(I2286557
I2
I0
tp93
a(I2305115
I0
I1
tp94
a(I2305115
I1
I1
tp95
a(I2305501
I0
I0
tp96
a(I2305501
I1
I0
tp97
a(I2305501
I2
I0
tp98
a(I2337285
I0
I1
tp99
a(I2337285
I1
I0
tp100
a(I2358890
I0
I1
tp101
a(I2363954
I0
I0
tp102
a(I2363954
I1
I0
tp103
a(I2363954
I2
I0
tp104
a(I2363954
I3
I0
tp105
a(I2382905
I0
I1
tp106
a(I2382905
I1
I0
tp107
a(I2389846
I0
I1
tp108
a(I2389846
I1
I1
tp109
a(I2389846
I2
I1
tp110
a(I2389846
I3
I0
tp111
a(I2397295
I0
I1
tp112
a(I2397295
I1
I0
tp113
a(I2454494
I0
I0
tp114
a(I2470764
I0
I0
tp115
a(I2470764
I1
I0
tp116
a(I2534786
I0
I0
tp117
a(I2534786
I1
I0
tp118
a(I2534786
I2
I0
tp119
a(I2572099
I0
I0
tp120
a(I2572099
I1
I0
tp121
a(I2575672
I0
I1
tp122
a(I2621549
I0
I1
tp123
a(I2621549
I1
I1
tp124
a(I2621549
I2
I0
tp125
a(I2654689
I0
I0
tp126
a(I2654689
I1
I0
tp127
a(I2716894
I2
I0
tp128
a(I2716894
I3
I0
tp129
a(I2717086
I0
I0
tp130
a(I2726839
I0
I1
tp131
a(I2726839
I1
I1
tp132
a(I2743712
I0
I0
tp133
a(I2743712
I4
I0
tp134
a(I2777188
I0
I0
tp135
a(I2777188
I1
I1
tp136
a(I2785714
I1
I1
tp137
a(I2857634
I0
I0
tp138
a(I2857634
I1
I0
tp139
a(I2857634
I2
I0
tp140
a(I2882308
I0
I0
tp141
a(I2882308
I1
I0
tp142
a(I2882308
I2
I1
tp143
a(I2922769
I1
I0
tp144
a(I2939050
I0
I1
tp145
a(I2951701
I1
I1
tp146
a(I2964751
I0
I1
tp147
a(I2964751
I1
I1
tp148
a(I2983959
I0
I1
tp149
a(I2983959
I1
I1
tp150
a(I2983959
I3
I0
tp151
a(I3038661
I0
I0
tp152
a(I3038661
I1
I0
tp153
a(I3038661
I2
I1
tp154
a(I3065624
I0
I0
tp155
a(I3068839
I1
I1
tp156
a(I3083583
I0
I1
tp157
a(I3083583
I1
I1
tp158
a(I3102098
I4
I0
tp159
a(I3102098
I5
I0
tp160
a(I3121979
I0
I1
tp161
a(I3145246
I0
I1
tp162
a(I3187961
I1
I0
tp163
a(I3187961
I2
I1
tp164
a(I3208076
I0
I1
tp165
a(I3208076
I1
I1
tp166
a(I3234114
I0
I1
tp167
a(I3234114
I1
I0
tp168
a(I3254713
I0
I0
tp169
a(I3254713
I1
I0
tp170
a(I3257619
I1
I0
tp171
a(I3277047
I1
I0
tp172
a(I3375374
I0
I0
tp173
a(I3387691
I1
I0
tp174
a(I3458542
I1
I0
tp175
a(I3458542
I2
I0
tp176
a(I3458542
I3
I0
tp177
a(I3458542
I4
I0
tp178
a(I3575359
I0
I1
tp179
a(I3576512
I0
I0
tp180
a(I3637419
I0
I0
tp181
a(I3637419
I1
I0
tp182
a(I3708418
I0
I1
tp183
a(I3738269
I1
I0
tp184
a(I3738269
I3
I0
tp185
a(I3738269
I4
I0
tp186
a(I3748356
I0
I0
tp187
a(I3788439
I0
I0
tp188
a(I3788439
I1
I0
tp189
a(I3821957
I1
I0
tp190
a(I3843017
I0
I1
tp191
a(I3843017
I1
I0
tp192
a(I3862310
I0
I0
tp193
a(I3862310
I1
I1
tp194
a(I3947313
I1
I1
tp195
a(I3947654
I0
I1
tp196
a(I3947654
I2
I1
tp197
a(I3947654
I3
I1
tp198
a(I3955571
I0
I0
tp199
a(I3955571
I1
I0
tp200
a(I3984539
I1
I1
tp201
a(I3986345
I1
I0
tp202
a(I4112561
I0
I0
tp203
a(I4112561
I2
I0
tp204
a(I4201562
I0
I0
tp205
a(I4201562
I2
I0
tp206
a(I4201562
I3
I0
tp207
a(I4201562
I4
I0
tp208
a(I4219843
I0
I1
tp209
a(I4219843
I1
I0
tp210
a(I4339273
I1
I1
tp211
a(I4397859
I2
I0
tp212
a(I4402383
I2
I0
tp213
a(I4402383
I3
I1
tp214
a(I4413798
I0
I1
tp215
a(I4416013
I0
I0
tp216
a(I4416013
I3
I0
tp217
a(I4416013
I4
I0
tp218
a(I4484985
I0
I1
tp219
a(I4534486
I1
I0
tp220
a(I4534486
I2
I1
tp221
a(I4554767
I2
I0
tp222
a(I4631601
I1
I1
tp223
a(I4659579
I0
I1
tp224
a(I4659579
I1
I0
tp225
a(I4660250
I0
I1
tp226
a(I4660250
I1
I0
tp227
a(I4696418
I0
I1
tp228
a(I4696418
I1
I0
tp229
a(I4702518
I0
I1
tp230
a(I4791080
I3
I0
tp231
a(I4791080
I4
I0
tp232
a(I4797704
I0
I0
tp233
a(I4797704
I1
I0
tp234
a(I4808753
I1
I1
tp235
a(I4867037
I0
I0
tp236
a(I4868900
I2
I0
tp237
a(I4910789
I0
I0
tp238
a(I4936507
I0
I0
tp239
a(I4936507
I1
I0
tp240
a(I4951751
I1
I0
tp241
a(I4975563
I0
I1
tp242
a(I4975563
I1
I1
tp243
a(I4976964
I1
I0
tp244
a(I4981815
I0
I1
tp245
a(I5051795
I1
I1
tp246
a(I5103329
I0
I1
tp247
a(I5148790
I1
I1
tp248
a(I5185944
I0
I0
tp249
a(I5198116
I0
I0
tp250
a(I5198116
I2
I0
tp251
a(I5222333
I0
I1
tp252
a(I5276837
I3
I0
tp253
a(I5286022
I1
I1
tp254
a(I5300387
I1
I1
tp255
a(I5332701
I0
I1
tp256
a(I5332701
I2
I1
tp257
a(I5332701
I5
I1
tp258
a(I5447428
I1
I0
tp259
a(I5464504
I0
I0
tp260
a(I5464504
I1
I0
tp261
a(I5470210
I2
I0
tp262
a(I5472771
I0
I0
tp263
a(I5472771
I1
I0
tp264
a(I5530857
I3
I0
tp265
a(I5532498
I1
I1
tp266
a(I5599022
I0
I1
tp267
a(I5599022
I1
I0
tp268
a(I5629242
I1
I1
tp269
a(I5678136
I0
I1
tp270
a(I5678136
I1
I0
tp271
a(I5678950
I1
I1
tp272
a(I5701962
I2
I0
tp273
a(I5722767
I1
I0
tp274
a(I5722767
I2
I0
tp275
a(I5726827
I0
I1
tp276
a(I5743548
I0
I1
tp277
a(I5743548
I1
I1
tp278
a(I5761617
I0
I0
tp279
a(I5761617
I2
I0
tp280
a(I5761617
I3
I0
tp281
a(I5771039
I2
I0
tp282
a(I5808970
I1
I0
tp283
a(I5873969
I1
I0
tp284
a(I5901653
I0
I0
tp285
a(I5901653
I1
I1
tp286
a(I5909816
I0
I1
tp287
a(I5914627
I0
I1
tp288
a(I5914627
I1
I1
tp289
a(I5930036
I0
I1
tp290
a(I5930036
I2
I1
tp291
a(I5947137
I0
I1
tp292
a(I5947137
I2
I1
tp293
a(I5999241
I2
I0
tp294
a(I6046049
I0
I1
tp295
a(I6046049
I1
I1
tp296
a(I6050187
I0
I1
tp297
a(I6071784
I0
I1
tp298
a(I6102103
I0
I0
tp299
a(I6102103
I1
I0
tp300
a(I6154424
I0
I0
tp301
a(I6154424
I1
I0
tp302
a(I6165277
I1
I0
tp303
a(I6205592
I0
I1
tp304
a(I6205592
I2
I0
tp305
a(I6220490
I1
I0
tp306
a(I6235146
I0
I0
tp307
a(I6235146
I1
I0
tp308
a(I6235146
I2
I0
tp309
a(I6237378
I2
I0
tp310
a(I6237378
I3
I0
tp311
a(I6253617
I0
I1
tp312
a(I6315244
I1
I0
tp313
a(I6316726
I0
I0
tp314
a(I6316726
I1
I0
tp315
a(I6316726
I3
I0
tp316
a(I6367051
I1
I0
tp317
a(I6389577
I0
I1
tp318
a(I6389577
I1
I1
tp319
a(I6406368
I0
I1
tp320
a(I6406368
I1
I1
tp321
a(I6493681
I0
I1
tp322
a(I6493681
I1
I0
tp323
a(I6540412
I1
I0
tp324
a(I6540412
I2
I0
tp325
a(I6566642
I0
I1
tp326
a(I6566642
I1
I1
tp327
a(I6611563
I1
I1
tp328
a(I6624152
I0
I1
tp329
a(I6624152
I1
I0
tp330
a(I6669828
I1
I0
tp331
a(I6687619
I0
I1
tp332
a(I6727491
I1
I1
tp333
a(I6762695
I0
I1
tp334
a(I6762695
I1
I1
tp335
a(I6798490
I0
I0
tp336
a(I6798490
I1
I0
tp337
a(I6798490
I2
I0
tp338
a(I6852394
I1
I0
tp339
a(I6941965
I2
I1
tp340
a(I6943912
I1
I0
tp341
a(I6943912
I2
I0
tp342
a(I6976372
I1
I0
tp343
a(I6998245
I0
I1
tp344
a(I6998245
I1
I0
tp345
a(I7086295
I0
I1
tp346
a(I7086295
I1
I0
tp347
a(I7096090
I0
I0
tp348
a(I7132861
I0
I1
tp349
a(I7132861
I1
I1
tp350
a(I7132861
I2
I1
tp351
a(I7154171
I0
I1
tp352
a(I7171140
I0
I1
tp353
a(I7171140
I1
I1
tp354
a(I7172290
I1
I0
tp355
a(I7172290
I2
I1
tp356
a(I7218865
I0
I1
tp357
a(I7274521
I0
I1
tp358
a(I7274521
I1
I0
tp359
a(I7302316
I0
I1
tp360
a(I7376019
I0
I1
tp361
a(I7376019
I1
I1
tp362
a(I7407934
I1
I1
tp363
a(I7463941
I1
I1
tp364
a(I7471055
I0
I1
tp365
a(I7471055
I1
I1
tp366
a(I7490408
I0
I1
tp367
a(I7490408
I1
I0
tp368
a(I7501557
I0
I1
tp369
a(I7508774
I1
I0
tp370
a(I7508774
I2
I1
tp371
a(I7522721
I0
I1
tp372
a(I7537439
I0
I1
tp373
a(I7537439
I1
I1
tp374
a(I7586936
I1
I1
tp375
a(I7681301
I1
I0
tp376
a(I7700545
I0
I1
tp377
a(I7734028
I1
I1
tp378
a(I7741455
I0
I0
tp379
a(I7741455
I2
I0
tp380
a(I7786737
I0
I0
tp381
a(I7821265
I0
I0
tp382
a(I7835030
I1
I0
tp383
a(I7877282
I0
I0
tp384
a(I7877282
I1
I0
tp385
a(I7886024
I1
I1
tp386
a(I7927670
I0
I1
tp387
a(I7927670
I2
I0
tp388
a(I7933596
I1
I1
tp389
a(I7933596
I4
I0
tp390
a(I7933596
I5
I0
tp391
a(I7933596
I7
I0
tp392
a(I7953623
I0
I1
tp393
a(I7953623
I1
I0
tp394
a(I8017432
I1
I0
tp395
a(I8017432
I2
I0
tp396
a(I8019287
I2
I0
tp397
a(I8072755
I0
I1
tp398
a(I8087485
I1
I1
tp399
a(I8096798
I0
I1
tp400
a(I8096798
I1
I1
tp401
a(I8137056
I0
I0
tp402
a(I8147559
I0
I1
tp403
a(I8147559
I1
I1
tp404
a(I8180404
I0
I0
tp405
a(I8180404
I1
I1
tp406
a(I8249165
I0
I1
tp407
a(I8249165
I1
I1
tp408
a(I8302519
I1
I1
tp409
a(I8329204
I1
I0
tp410
a(I8345190
I1
I1
tp411
a(I8405977
I0
I0
tp412
a(I8405977
I1
I0
tp413
a(I8419817
I1
I1
tp414
a(I8422308
I1
I0
tp415
a(I8422308
I2
I0
tp416
a(I8431654
I0
I1
tp417
a(I8470539
I0
I0
tp418
a(I8530203
I0
I1
tp419
a(I8530203
I1
I1
tp420
a(I8605189
I2
I0
tp421
a(I8652136
I0
I1
tp422
a(I8671702
I1
I0
tp423
a(I8685308
I0
I1
tp424
a(I8685308
I1
I0
tp425
a(I8685308
I2
I0
tp426
a(I8702772
I1
I0
tp427
a(I8714744
I2
I0
tp428
a(I8714744
I3
I0
tp429
a(I8780912
I3
I0
tp430
a(I8780912
I5
I0
tp431
a(I8892307
I0
I0
tp432
a(I8892307
I1
I0
tp433
a(I8937566
I0
I1
tp434
a(I8937566
I2
I1
tp435
a(I8948166
I1
I0
tp436
a(I8948773
I1
I0
tp437
a(I8948773
I2
I0
tp438
a(I8950809
I1
I0
tp439
a(I9013354
I0
I1
tp440
a(I9013354
I3
I1
tp441
a(I9017260
I0
I1
tp442
a(I9017260
I1
I0
tp443
a(I9020831
I0
I1
tp444
a(I9020831
I1
I1
tp445
a(I9091299
I1
I0
tp446
a(I9091299
I2
I0
tp447
a(I9151104
I1
I1
tp448
a(I9232944
I2
I0
tp449
a(I9242450
I0
I1
tp450
a(I9242450
I1
I0
tp451
a(I9288169
I0
I0
tp452
a(I9364754
I0
I0
tp453
a(I9364754
I1
I0
tp454
a(I9364754
I2
I0
tp455
a(I9394051
I0
I1
tp456
a(I9394051
I1
I1
tp457
a(I9406400
I2
I0
tp458
a(I9410760
I0
I1
tp459
a(I9410760
I1
I0
tp460
a(I9416934
I0
I1
tp461
a(I9416934
I2
I0
tp462
a(I9416947
I0
I1
tp463
a(I9419848
I2
I0
tp464
a(I9456233
I0
I1
tp465
a(I9456233
I1
I0
tp466
a(I9460992
I0
I0
tp467
a(I9465236
I1
I0
tp468
a(I9487389
I0
I0
tp469
a(I9504638
I0
I1
tp470
a(I9504638
I1
I1
tp471
a(I9504638
I2
I1
tp472
a(I9538171
I0
I1
tp473
a(I9538171
I1
I0
tp474
a(I9542738
I0
I1
tp475
a(I9542738
I2
I1
tp476
a(I9542738
I3
I1
tp477
a(I9542738
I4
I1
tp478
a(I9542738
I5
I1
tp479
a(I9575384
I0
I0
tp480
a(I9575384
I1
I0
tp481
a(I9575384
I2
I0
tp482
a(I9630668
I1
I0
tp483
a(I9668867
I0
I1
tp484
a(I9670866
I0
I0
tp485
a(I9671165
I0
I0
tp486
a(I9706041
I0
I1
tp487
a(I9706041
I1
I1
tp488
a(I9706041
I2
I1
tp489
a(I9761554
I1
I0
tp490
a(I9761562
I1
I1
tp491
a(I9787427
I2
I0
tp492
a(I9849828
I0
I1
tp493
a(I9849828
I1
I0
tp494
a(I9857382
I1
I1
tp495
a(I9897007
I0
I1
tp496
a(I9897007
I1
I0
tp497
a(I9950474
I0
I0
tp498
a(I9950474
I1
I0
tp499
a(I9950474
I2
I0
tp500
a(I9950474
I3
I0
tp501
a(I9950474
I4
I0
tp502
a(I9969684
I0
I1
tp503
a(I9969684
I1
I1
tp504
a(I9969684
I3
I1
tp505
a(I10001301
I0
I1
tp506
a(I10001301
I1
I1
tp507
a(I10040037
I0
I0
tp508
a(I10040037
I2
I0
tp509
a(I10048069
I1
I1
tp510
a(I10099326
I2
I0
tp511
a(I10099326
I3
I0
tp512
a(I10108070
I0
I1
tp513
a(I10108368
I0
I0
tp514
a(I10108368
I3
I0
tp515
a(I10108368
I4
I0
tp516
a(I10112614
I2
I1
tp517
a(I10126668
I1
I0
tp518
a(I10126668
I2
I0
tp519
a(I10126668
I3
I0
tp520
a(I10126668
I6
I0
tp521
a(I10127973
I1
I0
tp522
a(I10154289
I0
I1
tp523
a(I10154289
I1
I1
tp524
a(I10156909
I0
I0
tp525
a(I10156909
I1
I0
tp526
a(I10156909
I2
I0
tp527
a(I10255972
I0
I0
tp528
a(I10255972
I1
I0
tp529
a(I10263217
I0
I0
tp530
a(I10282693
I0
I1
tp531
a(I10303797
I1
I0
tp532
a(I10303797
I3
I0
tp533
a(I10342939
I0
I0
tp534
a(I10342939
I1
I0
tp535
a(I10429919
I1
I0
tp536
a(I10429919
I2
I0
tp537
a(I10429919
I3
I0
tp538
a(I10460286
I1
I1
tp539
a(I10472907
I0
I1
tp540
a(I10500834
I0
I1
tp541
a(I10500834
I1
I1
tp542
a(I10507011
I0
I1
tp543
a(I10507011
I1
I0
tp544
a(I10526579
I0
I1
tp545
a(I10562180
I1
I0
tp546
a(I10586471
I0
I0
tp547
a(I10599771
I0
I0
tp548
a(I10602071
I0
I0
tp549
a(I10610592
I0
I1
tp550
a(I10610592
I2
I1
tp551
a(I10636203
I1
I0
tp552
a(I10636203
I2
I1
tp553
a(I10636203
I3
I0
tp554
a(I10645986
I0
I1
tp555
a(I10645986
I1
I1
tp556
a(I10647449
I1
I0
tp557
a(I10683659
I1
I0
tp558
a(I10805846
I1
I0
tp559
a(I10805846
I2
I0
tp560
a(I10829302
I1
I1
tp561
a(I10843549
I0
I1
tp562
a(I10843549
I1
I0
tp563
a(I10870736
I0
I1
tp564
a(I10870736
I1
I1
tp565
a(I10881852
I0
I0
tp566
a(I10881852
I1
I0
tp567
a(I10889564
I1
I0
tp568
a(I10920180
I0
I1
tp569
a(I10920180
I1
I0
tp570
a(I10920180
I2
I0
tp571
a(I10961378
I0
I0
tp572
a(I10961378
I1
I0
tp573
a(I10963952
I0
I1
tp574
a(I10993692
I1
I1
tp575
a(I10993692
I2
I1
tp576
a(I11040604
I0
I1
tp577
a(I11040604
I1
I0
tp578
a(I11065100
I0
I0
tp579
a(I11065100
I1
I0
tp580
a(I11065100
I2
I1
tp581
a(I11066400
I0
I1
tp582
a(I11078122
I0
I1
tp583
a(I11078122
I2
I0
tp584
a(I11102829
I1
I1
tp585
a(I11140628
I0
I0
tp586
a(I11140628
I2
I0
tp587
a(I11159668
I1
I0
tp588
a(I11159668
I2
I1
tp589
a(I11159668
I3
I0
tp590
a(I11198718
I1
I1
tp591
a(I11207302
I2
I0
tp592
a(I11239815
I0
I1
tp593
a(I11242667
I0
I0
tp594
a(I11242667
I1
I0
tp595
a(I11255432
I0
I0
tp596
a(I11269104
I0
I0
tp597
a(I11313599
I0
I1
tp598
a(I11313599
I1
I0
tp599
a(I11314980
I1
I0
tp600
a(I11340765
I0
I1
tp601
a(I11340765
I1
I1
tp602
a(I11345160
I0
I0
tp603
a(I11382536
I0
I1
tp604
a(I11382536
I1
I0
tp605
a(I11388032
I0
I0
tp606
a(I11388032
I1
I0
tp607
a(I11390421
I1
I0
tp608
a(I11444222
I1
I1
tp609
a(I11488877
I0
I1
tp610
a(I11514277
I0
I1
tp611
a(I11519787
I1
I1
tp612
a(I11576779
I0
I1
tp613
a(I11611183
I1
I0
tp614
a(I11623769
I0
I0
tp615
a(I11624362
I0
I1
tp616
a(I11624362
I1
I0
tp617
a(I11668603
I1
I0
tp618
a(I11668603
I3
I0
tp619
a(I11668603
I6
I0
tp620
a(I11676649
I0
I1
tp621
a(I11676649
I1
I0
tp622
a(I11691679
I1
I0
tp623
a(I11691679
I4
I0
tp624
a(I11805535
I0
I1
tp625
a(I11816741
I0
I0
tp626
a(I11816741
I2
I0
tp627
a(I11827100
I1
I0
tp628
a(I11830474
I0
I1
tp629
a(I11830474
I1
I1
tp630
a(I11830474
I2
I1
tp631
a(I11832984
I0
I1
tp632
a(I11897977
I0
I1
tp633
a(I11902626
I0
I0
tp634
a(I11939631
I0
I1
tp635
a(I11939631
I1
I1
tp636
a(I11939631
I2
I1
tp637
a(I11943980
I1
I1
tp638
a(I11944826
I0
I1
tp639
a(I11944826
I1
I0
tp640
a(I11984684
I0
I1
tp641
a(I11984684
I1
I1
tp642
a(I11984684
I2
I1
tp643
a(I12012818
I0
I0
tp644
a(I12012818
I1
I0
tp645
a(I12014704
I1
I0
tp646
a(I12059634
I0
I1
tp647
a(I12081704
I1
I0
tp648
a(I12081704
I3
I0
tp649
a(I12081704
I5
I0
tp650
a(I12081704
I7
I0
tp651
a(I12102342
I1
I0
tp652
a(I12175964
I0
I1
tp653
a(I12184015
I0
I1
tp654
a(I12184015
I1
I1
tp655
a(I12231891
I1
I0
tp656
a(I12307099
I0
I1
tp657
a(I12309693
I0
I0
tp658
a(I12309693
I1
I0
tp659
a(I12309693
I2
I0
tp660
a(I12329807
I0
I0
tp661
a(I12329807
I2
I0
tp662
a(I12329807
I3
I0
tp663
a(I12379529
I0
I0
tp664
a(I12379529
I1
I0
tp665
a(I12389570
I0
I1
tp666
a(I12413317
I0
I0
tp667
a(I12494277
I0
I1
tp668
a(I12494277
I1
I0
tp669
a(I12494930
I0
I0
tp670
a(I12494930
I1
I1
tp671
a(I12496531
I0
I1
tp672
a(I12496531
I1
I1
tp673
a(I12501761
I1
I0
tp674
a(I12501761
I2
I1
tp675
a(I12504976
I2
I0
tp676
a(I12504976
I3
I0
tp677
a(I12573992
I1
I0
tp678
a(I12573992
I2
I0
tp679
a(I12573992
I3
I0
tp680
a(I12667537
I0
I1
tp681
a(I12667537
I1
I1
tp682
a(I12674794
I1
I0
tp683
a(I12713743
I0
I0
tp684
a(I12744136
I0
I0
tp685
a(I12744136
I1
I0
tp686
a(I12785573
I1
I0
tp687
a(I12824228
I1
I1
tp688
a(I12824228
I2
I1
tp689
a(I12901066
I1
I0
tp690
a(I12923835
I0
I1
tp691
a(I12972595
I1
I1
tp692
a(I12986272
I0
I1
tp693
a(I12986272
I1
I0
tp694
a(I13031989
I0
I1
tp695
a(I13031989
I1
I1
tp696
a(I13047895
I1
I0
tp697
a(I13047895
I2
I0
tp698
a(I13098173
I3
I0
tp699
a(I13103195
I0
I1
tp700
a(I13103195
I1
I1
tp701
a(I13247749
I1
I0
tp702
a(I13374028
I0
I0
tp703
a(I13382774
I0
I1
tp704
a(I13390315
I0
I0
tp705
a(I13390315
I1
I0
tp706
a(I13390315
I2
I0
tp707
a(I13390315
I3
I0
tp708
a(I13405223
I0
I1
tp709
a(I13405223
I1
I0
tp710
a(I13407560
I0
I1
tp711
a(I13416327
I0
I1
tp712
a(I13416327
I1
I1
tp713
a(I13471083
I0
I0
tp714
a(I13471083
I1
I0
tp715
a(I13471083
I2
I0
tp716
a(I13497170
I1
I0
tp717
a(I13497170
I2
I0
tp718
a(I13497170
I3
I0
tp719
a(I13539339
I0
I0
tp720
a(I13548996
I0
I1
tp721
a(I13548996
I1
I1
tp722
a(I13562613
I2
I0
tp723
a(I13562613
I4
I0
tp724
a(I13584299
I1
I0
tp725
a(I13612437
I0
I0
tp726
a(I13669642
I0
I0
tp727
a(I13669642
I1
I0
tp728
a(I13695181
I1
I0
tp729
a(I13701374
I0
I0
tp730
a(I13701374
I1
I0
tp731
a(I13701374
I2
I0
tp732
a(I13715594
I1
I0
tp733
a(I13728878
I1
I0
tp734
a(I13793694
I0
I1
tp735
a(I13793694
I1
I0
tp736
a(I13794620
I2
I0
tp737
a(I13882808
I1
I0
tp738
a(I13913530
I1
I1
tp739
a(I13936068
I1
I0
tp740
a(I13953964
I0
I0
tp741
a(I13953964
I2
I0
tp742
a(I13953964
I3
I0
tp743
a(I13983620
I0
I1
tp744
a(I13983620
I2
I1
tp745
a(I14001382
I0
I0
tp746
a(I14001382
I2
I0
tp747
a(I14017199
I0
I1
tp748
a(I14076207
I0
I1
tp749
a(I14144315
I2
I0
tp750
a(I14154851
I2
I1
tp751
a(I14208280
I0
I1
tp752
a(I14211597
I1
I0
tp753
a(I14258317
I1
I0
tp754
a(I14275975
I0
I0
tp755
a(I14285049
I1
I1
tp756
a(I14285049
I2
I0
tp757
a(I14363016
I0
I0
tp758
a(I14363016
I1
I0
tp759
a(I14363016
I3
I1
tp760
a(I14363016
I4
I0
tp761
a(I14366713
I1
I0
tp762
a(I14383937
I0
I1
tp763
a(I14383937
I1
I0
tp764
a(I14421133
I0
I1
tp765
a(I14421133
I1
I1
tp766
a(I14421630
I0
I1
tp767
a(I14436970
I0
I0
tp768
a(I14436970
I4
I0
tp769
a(I14462993
I0
I0
tp770
a(I14494101
I0
I1
tp771
a(I14494101
I2
I0
tp772
a(I14508570
I0
I1
tp773
a(I14583576
I1
I1
tp774
a(I14601544
I1
I0
tp775
a(I14601544
I3
I0
tp776
a(I14601544
I4
I0
tp777
a(I14601544
I6
I0
tp778
a(I14622698
I1
I0
tp779
a(I14622698
I3
I0
tp780
a(I14622698
I4
I0
tp781
a(I14677341
I2
I0
tp782
a(I14686212
I1
I0
tp783
a(I14686212
I3
I0
tp784
a(I14692029
I2
I1
tp785
a(I14710221
I0
I1
tp786
a(I14711669
I0
I1
tp787
a(I14711669
I1
I1
tp788
a(I14720912
I0
I1
tp789
a(I14720912
I2
I1
tp790
a(I14720912
I4
I1
tp791
a(I14783438
I1
I0
tp792
a(I14799223
I1
I0
tp793
a(I14808945
I0
I1
tp794
a(I14808945
I1
I0
tp795
a(I14837231
I0
I1
tp796
a(I14837231
I1
I0
tp797
a(I14856385
I0
I0
tp798
a(I14856385
I1
I1
tp799
a(I14873181
I0
I1
tp800
a(I14891190
I0
I1
tp801
a(I14891190
I1
I1
tp802
a(I14940338
I2
I1
tp803
a(I14972601
I0
I1
tp804
a(I15009180
I2
I1
tp805
a(I15014326
I0
I1
tp806
a(I15062205
I0
I0
tp807
a(I15062205
I1
I0
tp808
a(I15062205
I2
I0
tp809
a(I15066913
I0
I0
tp810
a(I15089310
I0
I1
tp811
a(I15089310
I2
I0
tp812
a(I15104415
I0
I0
tp813
a(I15104415
I1
I0
tp814
a(I15114761
I1
I0
tp815
a(I15148202
I0
I1
tp816
a(I15183718
I1
I1
tp817
a(I15211991
I1
I0
tp818
a(I15238389
I0
I1
tp819
a(I15238389
I1
I1
tp820
a(I15283478
I1
I0
tp821
a(I15304076
I1
I0
tp822
a(I15312953
I0
I1
tp823
a(I15312953
I1
I1
tp824
a(I15326069
I0
I1
tp825
a(I15326069
I1
I1
tp826
a(I15329797
I0
I1
tp827
a(I15329797
I1
I1
tp828
a(I15340713
I0
I1
tp829
a(I15398904
I0
I1
tp830
a(I15398904
I1
I1
tp831
a(I15398904
I3
I0
tp832
a(I15401415
I0
I1
tp833
a(I15401415
I1
I1
tp834
a(I15418751
I0
I1
tp835
a(I15418751
I3
I0
tp836
a(I15425455
I0
I1
tp837
a(I15425455
I1
I0
tp838
a(I15432775
I0
I1
tp839
a(I15456166
I0
I1
tp840
a(I15456166
I1
I1
tp841
a(I15459675
I0
I1
tp842
a(I15459675
I1
I0
tp843
a(I15489749
I0
I1
tp844
a(I15508970
I0
I0
tp845
a(I15508970
I3
I1
tp846
a(I15510367
I1
I0
tp847
a(I15510367
I5
I0
tp848
a(I15516876
I0
I1
tp849
a(I15516876
I2
I1
tp850
a(I15547217
I0
I1
tp851
a(I15580917
I0
I1
tp852
a(I15620039
I1
I0
tp853
a(I15635341
I0
I1
tp854
a(I15688462
I2
I1
tp855
a(I15688462
I3
I1
tp856
a(I15711845
I0
I0
tp857
a(I15711845
I1
I0
tp858
a(I15711845
I2
I0
tp859
a(I15721679
I0
I0
tp860
a(I15721679
I1
I0
tp861
a(I15721679
I2
I0
tp862
a(I15721679
I3
I0
tp863
a(I15793715
I1
I0
tp864
a(I15795416
I0
I0
tp865
a(I15795416
I1
I0
tp866
a(I15815999
I0
I1
tp867
a(I15820788
I0
I0
tp868
a(I15820788
I1
I0
tp869
a(I15820788
I2
I0
tp870
a(I15892598
I1
I1
tp871
a(I15905215
I0
I1
tp872
a(I15905215
I1
I0
tp873
a(I15926531
I0
I1
tp874
a(I15971308
I0
I1
tp875
a(I16019624
I1
I0
tp876
a(I16021184
I1
I0
tp877
a(I16056574
I0
I1
tp878
a(I16057689
I0
I1
tp879
a(I16070219
I0
I1
tp880
a(I16070219
I1
I0
tp881
a(I16070219
I2
I0
tp882
a(I16090146
I0
I0
tp883
a(I16090146
I1
I0
tp884
a(I16107526
I0
I1
tp885
a(I16107526
I2
I1
tp886
a(I16110307
I1
I0
tp887
a(I16123732
I1
I1
tp888
a(I16123732
I2
I0
tp889
a(I16142829
I0
I1
tp890
a(I16143648
I1
I0
tp891
a(I16143648
I2
I0
tp892
a(I16143648
I3
I0
tp893
a(I16207633
I1
I1
tp894
a(I16218482
I0
I1
tp895
a(I16218482
I1
I0
tp896
a(I16233528
I0
I0
tp897
a(I16233528
I1
I0
tp898
a(I16233528
I2
I0
tp899
a(I16253958
I0
I1
tp900
a(I16367823
I0
I1
tp901
a(I16367823
I1
I0
tp902
a(I16391808
I0
I1
tp903
a(I16391808
I2
I0
tp904
a(I16397116
I1
I0
tp905
a(I16402525
I0
I1
tp906
a(I16402525
I1
I0
tp907
a(I16421050
I2
I0
tp908
a(I16522362
I0
I1
tp909
a(I16522362
I1
I1
tp910
a(I16530710
I0
I1
tp911
a(I16615630
I0
I1
tp912
a(I16615630
I2
I0
tp913
a(I16659818
I0
I1
tp914
a(I16659818
I1
I1
tp915
a(I16661101
I0
I1
tp916
a(I16661101
I1
I0
tp917
a(I16689117
I0
I1
tp918
a(I16689117
I1
I1
tp919
a(I16689117
I3
I1
tp920
a(I16689457
I1
I0
tp921
a(I16750376
I0
I1
tp922
a(I16773583
I0
I1
tp923
a(I16773583
I1
I0
tp924
a(I16782291
I0
I1
tp925
a(I16782291
I1
I0
tp926
a(I16862690
I1
I1
tp927
a(I16897609
I0
I0
tp928
a(I16897609
I1
I0
tp929
a(I16965782
I1
I1
tp930
a(I16983863
I0
I0
tp931
a(I16983863
I1
I1
tp932
a(I17013381
I1
I0
tp933
a(I17058504
I0
I1
tp934
a(I17065086
I1
I0
tp935
a(I17065977
I0
I1
tp936
a(I17077403
I1
I0
tp937
a(I17077403
I2
I0
tp938
a(I17086278
I0
I1
tp939
a(I17086278
I1
I1
tp940
a(I17103701
I1
I1
tp941
a(I17103701
I2
I0
tp942
a(I17103701
I3
I0
tp943
a(I17163234
I0
I0
tp944
a(I17163234
I1
I0
tp945
a(I17167297
I0
I1
tp946
a(I17203403
I0
I1
tp947
a(I17211188
I1
I1
tp948
a(I17243403
I0
I0
tp949
a(I17243403
I2
I1
tp950
a(I17252056
I0
I1
tp951
a(I17252056
I1
I0
tp952
a(I17254599
I0
I0
tp953
a(I17260358
I2
I1
tp954
a(I17270318
I0
I1
tp955
a(I17270318
I1
I0
tp956
a(I17270318
I2
I0
tp957
a(I17288571
I0
I0
tp958
a(I17288571
I1
I1
tp959
a(I17288571
I2
I1
tp960
a(I17307474
I1
I1
tp961
a(I17334702
I0
I0
tp962
a(I17368930
I1
I1
tp963
a(I17368930
I2
I0
tp964
a(I17374553
I0
I1
tp965
a(I17374553
I1
I0
tp966
a(I17426202
I1
I0
tp967
a(I17426202
I3
I0
tp968
a(I17462994
I2
I1
tp969
a(I17471682
I0
I1
tp970
a(I17471682
I1
I0
tp971
a(I17471682
I3
I0
tp972
a(I17471682
I4
I0
tp973
a(I17478779
I0
I1
tp974
a(I17478779
I1
I1
tp975
a(I17486578
I0
I0
tp976
a(I17486578
I1
I0
tp977
a(I17486578
I2
I0
tp978
a(I17486578
I3
I0
tp979
a(I17504995
I0
I1
tp980
a(I17504995
I1
I1
tp981
a(I17534484
I2
I0
tp982
a(I17559933
I0
I0
tp983
a(I17559933
I2
I0
tp984
a(I17561901
I1
I1
tp985
a(I17598881
I2
I0
tp986
a(I17636790
I0
I0
tp987
a(I17636790
I1
I0
tp988
a(I17637244
I1
I1
tp989
a(I17641195
I0
I1
tp990
a(I17659626
I0
I1
tp991
a(I17687453
I1
I0
tp992
a(I17687453
I2
I0
tp993
a(I17700964
I1
I0
tp994
a(I17711212
I0
I1
tp995
a(I17734781
I0
I1
tp996
a(I17734781
I1
I0
tp997
a(I17762515
I1
I0
tp998
a(I17762515
I2
I1
tp999
a(I17774547
I0
I1
tp1000
a(I17778394
I0
I1
tp1001
a(I17795362
I1
I0
tp1002
a(I17799504
I0
I1
tp1003
a(I17799504
I1
I1
tp1004
a(I17809274
I1
I1
tp1005
a(I17809274
I2
I1
tp1006
a(I17809274
I3
I1
tp1007
a(I17811168
I0
I1
tp1008
a(I17811168
I1
I0
tp1009
a(I17811168
I3
I0
tp1010
a(I17811168
I4
I0
tp1011
a(I17866724
I1
I1
tp1012
a(I17866724
I2
I0
tp1013
a(I17870242
I0
I1
tp1014
a(I17870242
I1
I1
tp1015
a(I17910014
I1
I1
tp1016
a(I17910014
I2
I1
tp1017
a(I17910359
I0
I1
tp1018
a(I17911276
I1
I0
tp1019
a(I17911276
I2
I1
tp1020
a(I17921455
I0
I0
tp1021
a(I17921455
I1
I0
tp1022
a(I17958069
I0
I0
tp1023
a(I17958069
I2
I0
tp1024
a(I17972025
I0
I1
tp1025
a(I17972025
I1
I0
tp1026
a(I18016779
I1
I0
tp1027
a(I18040702
I2
I1
tp1028
a(I18049531
I0
I1
tp1029
a(I18050937
I0
I1
tp1030
a(I18062466
I2
I1
tp1031
a(I18062466
I3
I1
tp1032
a(I18082130
I0
I1
tp1033
a(I18085030
I4
I0
tp1034
a(I18086307
I0
I0
tp1035
a(I18086307
I2
I0
tp1036
a(I18088496
I0
I1
tp1037
a(I18088496
I2
I0
tp1038
a(I18111031
I0
I0
tp1039
a(I18114415
I1
I1
tp1040
a(I18114415
I3
I0
tp1041
a(I18141698
I0
I1
tp1042
a(I18157559
I0
I1
tp1043
a(I18157559
I2
I0
tp1044
a(I18233948
I1
I0
tp1045
a(I18250516
I0
I1
tp1046
a(I18281342
I1
I0
tp1047
a(I18281342
I2
I1
tp1048
a(I18286362
I2
I0
tp1049
a(I18289871
I0
I1
tp1050
a(I18325280
I0
I1
tp1051
a(I18340475
I1
I1
tp1052
a(I18353465
I0
I1
tp1053
a(I18386302
I0
I0
tp1054
a(I18386302
I1
I1
tp1055
a(I18472262
I0
I0
tp1056
a(I18474538
I1
I0
tp1057
a(I18474538
I3
I0
tp1058
a(I18474538
I5
I0
tp1059
a(I18507244
I1
I0
tp1060
a(I18507736
I1
I0
tp1061
a(I18540321
I1
I0
tp1062
a(I18540321
I2
I0
tp1063
a(I18540321
I4
I1
tp1064
a(I18540321
I5
I1
tp1065
a(I18556448
I0
I1
tp1066
a(I18589821
I0
I1
tp1067
a(I18589821
I1
I1
tp1068
a(I18590658
I0
I0
tp1069
a(I18608160
I0
I0
tp1070
a(I18608160
I1
I0
tp1071
a(I18619131
I1
I0
tp1072
a(I18646076
I0
I1
tp1073
a(I18646076
I1
I0
tp1074
a(I18673420
I0
I0
tp1075
a(I18673420
I2
I0
tp1076
a(I18679264
I1
I0
tp1077
a(I18679264
I2
I0
tp1078
a(I18679264
I3
I0
tp1079
a(I18679264
I4
I0
tp1080
a(I18682304
I0
I1
tp1081
a(I18765094
I0
I0
tp1082
a(I18765094
I1
I0
tp1083
a(I18772706
I0
I1
tp1084
a(I18787830
I0
I1
tp1085
a(I18787830
I1
I1
tp1086
a(I18787830
I3
I1
tp1087
a(I18802249
I1
I0
tp1088
a(I18802249
I2
I0
tp1089
a(I18802249
I3
I1
tp1090
a(I18802563
I0
I0
tp1091
a(I18802563
I1
I0
tp1092
a(I18802563
I2
I0
tp1093
a(I18802563
I3
I0
tp1094
a(I18839875
I0
I1
tp1095
a(I18839875
I1
I0
tp1096
a(I18854425
I2
I0
tp1097
a(I18919032
I0
I1
tp1098
a(I18919032
I1
I0
tp1099
a(I18921302
I0
I1
tp1100
a(I18921302
I1
I0
tp1101
a(I18938302
I2
I0
tp1102
a(I18952977
I1
I0
tp1103
a(I18972212
I0
I1
tp1104
a(I19031953
I1
I0
tp1105
a(I19043923
I0
I1
tp1106
a(I19043923
I1
I0
tp1107
a(I19045971
I1
I1
tp1108
a(I19079040
I0
I1
tp1109
a(I19079040
I1
I1
tp1110
a(I19122988
I0
I1
tp1111
a(I19122988
I2
I1
tp1112
a(I19166610
I0
I0
tp1113
a(I19166610
I2
I0
tp1114
a(I19179245
I0
I1
tp1115
a(I19179245
I2
I0
tp1116
a(I19199869
I1
I0
tp1117
a(I19199869
I4
I0
tp1118
a(I19199869
I5
I0
tp1119
a(I19221073
I1
I0
tp1120
a(I19241166
I3
I0
tp1121
a(I19274492
I0
I0
tp1122
a(I19274492
I1
I0
tp1123
a(I19297410
I1
I0
tp1124
a(I19297410
I2
I0
tp1125
a(I19303429
I0
I1
tp1126
a(I19317766
I0
I0
tp1127
a(I19330415
I0
I1
tp1128
a(I19330415
I1
I0
tp1129
a(I19330415
I2
I0
tp1130
a(I19368715
I0
I1
tp1131
a(I19369025
I1
I0
tp1132
a(I19382088
I0
I0
tp1133
a(I19382088
I1
I0
tp1134
a(I19382088
I3
I0
tp1135
a(I19391149
I0
I1
tp1136
a(I19395350
I0
I1
tp1137
a(I19395350
I1
I0
tp1138
a(I19431099
I1
I0
tp1139
a(I19461747
I1
I0
tp1140
a(I19522263
I0
I1
tp1141
a(I19529825
I2
I0
tp1142
a(I19534230
I1
I0
tp1143
a(I19543636
I0
I0
tp1144
a(I19552183
I0
I1
tp1145
a(I19562863
I0
I1
tp1146
a(I19562863
I2
I1
tp1147
a(I19596424
I0
I0
tp1148
a(I19596424
I1
I0
tp1149
a(I19618514
I2
I0
tp1150
a(I19618514
I4
I0
tp1151
a(I19649791
I1
I0
tp1152
a(I19665491
I1
I0
tp1153
a(I19665491
I2
I0
tp1154
a(I19666356
I2
I1
tp1155
a(I19666356
I3
I1
tp1156
a(I19716770
I1
I0
tp1157
a(I19728214
I1
I0
tp1158
a(I19784235
I0
I1
tp1159
a(I19784235
I1
I0
tp1160
a(I19793156
I1
I0
tp1161
a(I19793156
I2
I0
tp1162
a(I19799490
I0
I1
tp1163
a(I19835824
I0
I1
tp1164
a(I19844558
I0
I1
tp1165
a(I19844558
I2
I1
tp1166
a(I19882621
I0
I0
tp1167
a(I19882621
I1
I0
tp1168
a(I19882621
I3
I0
tp1169
a(I19882621
I4
I0
tp1170
a(I19882621
I5
I0
tp1171
a(I19888255
I0
I1
tp1172
a(I19894715
I1
I0
tp1173
a(I19908167
I1
I0
tp1174
a(I19917545
I2
I1
tp1175
a(I19923464
I0
I0
tp1176
a(I19925056
I0
I0
tp1177
a(I19926534
I0
I1
tp1178
a(I19926534
I1
I1
tp1179
a(I19928482
I0
I1
tp1180
a(I19928482
I1
I0
tp1181
a(I19936790
I0
I1
tp1182
a(I19945525
I0
I1
tp1183
a(I19962586
I0
I0
tp1184
a(I19964345
I1
I0
tp1185
a(I20023209
I0
I1
tp1186
a(I20024490
I0
I1
tp1187
a(I20024490
I1
I0
tp1188
a(I20052327
I0
I1
tp1189
a(I20062672
I1
I1
tp1190
a(I20062684
I0
I1
tp1191
a(I20062684
I1
I0
tp1192
a(I20063721
I0
I1
tp1193
a(I20082507
I0
I1
tp1194
a(I20082507
I1
I1
tp1195
a(I20147593
I0
I1
tp1196
a(I20147593
I1
I0
tp1197
a(I20198951
I0
I1
tp1198
a(I20198951
I1
I1
tp1199
a(I20198951
I2
I0
tp1200
a(I20211031
I0
I0
tp1201
a(I20211031
I1
I0
tp1202
a(I20212171
I1
I1
tp1203
a(I20215266
I1
I0
tp1204
a(I20224501
I0
I0
tp1205
a(I20224501
I2
I0
tp1206
a(I20224501
I3
I0
tp1207
a(I20224501
I4
I0
tp1208
a(I20224501
I5
I0
tp1209
a(I20234453
I0
I1
tp1210
a(I20243683
I0
I0
tp1211
a(I20249149
I1
I1
tp1212
a(I20295134
I0
I1
tp1213
a(I20295134
I1
I1
tp1214
a(I20316339
I0
I1
tp1215
a(I20337561
I1
I0
tp1216
a(I20339462
I0
I1
tp1217
a(I20339462
I1
I1
tp1218
a(I20339462
I3
I0
tp1219
a(I20359968
I0
I0
tp1220
a(I20359968
I1
I0
tp1221
a(I20359968
I2
I0
tp1222
a(I20431617
I2
I0
tp1223
a(I20431617
I4
I0
tp1224
a(I20445470
I1
I1
tp1225
a(I20445470
I2
I1
tp1226
a(I20445672
I3
I0
tp1227
a(I20452340
I0
I1
tp1228
a(I20470749
I0
I1
tp1229
a(I20470749
I1
I0
tp1230
a(I20470749
I2
I1
tp1231
a(I20484918
I0
I1
tp1232
a(I20484918
I1
I1
tp1233
a(I20484918
I2
I1
tp1234
a(I20531168
I0
I0
tp1235
a(I20531168
I1
I0
tp1236
a(I20582840
I0
I1
tp1237
a(I20593215
I1
I0
tp1238
a(I20593215
I2
I0
tp1239
a(I20593215
I3
I0
tp1240
a(I20593215
I4
I0
tp1241
a(I20593215
I5
I0
tp1242
a(I20622240
I0
I0
tp1243
a(I20622240
I2
I0
tp1244
a(I20622240
I3
I0
tp1245
a(I20661902
I1
I0
tp1246
a(I20663162
I1
I0
tp1247
a(I20670334
I0
I1
tp1248
a(I20672238
I3
I0
tp1249
a(I20695432
I0
I1
tp1250
a(I20695432
I1
I0
tp1251
a(I20720521
I0
I1
tp1252
a(I20720521
I1
I1
tp1253
a(I20725343
I0
I0
tp1254
a(I20725343
I1
I0
tp1255
a(I20778951
I1
I1
tp1256
a(I20778951
I2
I1
tp1257
a(I20789412
I1
I0
tp1258
a(I20821815
I0
I1
tp1259
a(I20821815
I1
I0
tp1260
a(I20825173
I0
I0
tp1261
a(I20825173
I1
I0
tp1262
a(I20825173
I2
I0
tp1263
a(I20825173
I4
I0
tp1264
a(I20825173
I6
I0
tp1265
a(I20846235
I1
I0
tp1266
a(I20846235
I2
I0
tp1267
a(I20846235
I3
I0
tp1268
a(I20857188
I2
I0
tp1269
a(I20892950
I0
I1
tp1270
a(I20892950
I1
I1
tp1271
a(I20892950
I2
I1
tp1272
a(I20959022
I0
I1
tp1273
a(I20959022
I1
I1
tp1274
a(I20959022
I2
I0
tp1275
a(I20975430
I0
I0
tp1276
a(I20977408
I0
I1
tp1277
a(I20977408
I1
I1
tp1278
a(I20990336
I0
I0
tp1279
a(I20990336
I2
I0
tp1280
a(I21015447
I0
I0
tp1281
a(I21015447
I1
I0
tp1282
a(I21015447
I3
I0
tp1283
a(I21039772
I0
I1
tp1284
a(I21039772
I1
I0
tp1285
a(I21053458
I1
I1
tp1286
a(I21073086
I1
I0
tp1287
a(I21080357
I1
I0
tp1288
a(I21080357
I2
I0
tp1289
a(I21097039
I0
I0
tp1290
a(I21111836
I0
I0
tp1291
a(I21111836
I1
I0
tp1292
a(I21111836
I2
I0
tp1293
a(I21111836
I3
I0
tp1294
a(I21111836
I4
I0
tp1295
a(I21125897
I0
I1
tp1296
a(I21125897
I1
I0
tp1297
a(I21125897
I2
I0
tp1298
a(I21125897
I3
I0
tp1299
a(I21159782
I1
I0
tp1300
a(I21159782
I2
I0
tp1301
a(I21208724
I1
I0
tp1302
a(I21208724
I2
I0
tp1303
a(I21211756
I1
I1
tp1304
a(I21212484
I0
I0
tp1305
a(I21212484
I1
I0
tp1306
a(I21212484
I2
I0
tp1307
a(I21212484
I3
I0
tp1308
a(I21217108
I1
I0
tp1309
a(I21223269
I0
I0
tp1310
a(I21223269
I1
I0
tp1311
a(I21223269
I2
I0
tp1312
a(I21298191
I0
I0
tp1313
a(I21298821
I0
I0
tp1314
a(I21310549
I1
I0
tp1315
a(I21314143
I0
I1
tp1316
a(I21314143
I2
I1
tp1317
a(I21329988
I1
I0
tp1318
a(I21332785
I0
I0
tp1319
a(I21332785
I1
I0
tp1320
a(I21332785
I2
I0
tp1321
a(I21333339
I0
I1
tp1322
a(I21343401
I0
I1
tp1323
a(I21343401
I1
I1
tp1324
a(I21343401
I2
I1
tp1325
a(I21377990
I0
I1
tp1326
a(I21377990
I1
I1
tp1327
a(I21377990
I2
I1
tp1328
a(I21423213
I1
I0
tp1329
a(I21439948
I2
I0
tp1330
a(I21439948
I3
I0
tp1331
a(I21439948
I5
I0
tp1332
a(I21500596
I0
I1
tp1333
a(I21507319
I0
I1
tp1334
a(I21532471
I0
I1
tp1335
a(I21532471
I1
I0
tp1336
a(I21538859
I1
I0
tp1337
a(I21588963
I0
I0
tp1338
a(I21588963
I1
I0
tp1339
a(I21668606
I0
I0
tp1340
a(I21668606
I1
I0
tp1341
a(I21668606
I2
I0
tp1342
a(I21668606
I4
I0
tp1343
a(I21668606
I5
I0
tp1344
a(I21712375
I3
I0
tp1345
a(I21720721
I1
I0
tp1346
a(I21736784
I0
I1
tp1347
a(I21736784
I1
I0
tp1348
a(I21736784
I2
I0
tp1349
a(I21736784
I3
I0
tp1350
a(I21736784
I4
I0
tp1351
a(I21739450
I0
I0
tp1352
a(I21739450
I1
I1
tp1353
a(I21756477
I1
I0
tp1354
a(I21756477
I2
I0
tp1355
a(I21808905
I0
I1
tp1356
a(I21817657
I2
I0
tp1357
a(I21817657
I3
I1
tp1358
a(I21817657
I5
I1
tp1359
a(I21820700
I0
I1
tp1360
a(I21833068
I0
I1
tp1361
a(I21857875
I0
I1
tp1362
a(I21857875
I1
I1
tp1363
a(I21871829
I0
I0
tp1364
a(I21892080
I0
I0
tp1365
a(I21892080
I1
I0
tp1366
a(I21896326
I0
I1
tp1367
a(I21906759
I1
I1
tp1368
a(I21919877
I0
I1
tp1369
a(I21919877
I1
I1
tp1370
a(I21928814
I0
I1
tp1371
a(I21941657
I0
I1
tp1372
a(I21941657
I1
I0
tp1373
a(I21959866
I1
I0
tp1374
a(I21959866
I2
I1
tp1375
a(I22023193
I1
I0
tp1376
a(I22024409
I0
I1
tp1377
a(I22024409
I1
I0
tp1378
a(I22024409
I2
I1
tp1379
a(I22024409
I3
I0
tp1380
a(I22048792
I0
I0
tp1381
a(I22048792
I1
I0
tp1382
a(I22083378
I1
I0
tp1383
a(I22118136
I1
I0
tp1384
a(I22134243
I0
I1
tp1385
a(I22134243
I1
I1
tp1386
a(I22161088
I0
I1
tp1387
a(I22161088
I1
I0
tp1388
a(I22214949
I0
I1
tp1389
a(I22214949
I2
I0
tp1390
a(I22221858
I0
I0
tp1391
a(I22221858
I1
I0
tp1392
a(I22281406
I0
I0
tp1393
a(I22328160
I0
I1
tp1394
a(I22328160
I1
I1
tp1395
a(I22332069
I1
I0
tp1396
a(I22346807
I0
I0
tp1397
a(I22346807
I1
I1
tp1398
a(I22362010
I0
I1
tp1399
a(I22362010
I1
I1
tp1400
a(I22384398
I0
I1
tp1401
a(I22384398
I1
I0
tp1402
a(I22384398
I3
I0
tp1403
a(I22394350
I0
I1
tp1404
a(I22394350
I1
I0
tp1405
a(I22425626
I0
I1
tp1406
a(I22425626
I1
I1
tp1407
a(I22462728
I1
I0
tp1408
a(I22484903
I0
I1
tp1409
a(I22484903
I2
I0
tp1410
a(I22484903
I3
I0
tp1411
a(I22484903
I4
I1
tp1412
a(I22509908
I1
I1
tp1413
a(I22518000
I0
I1
tp1414
a(I22518000
I3
I0
tp1415
a(I22520948
I0
I0
tp1416
a(I22520948
I1
I0
tp1417
a(I22534983
I0
I1
tp1418
a(I22534983
I1
I0
tp1419
a(I22567247
I2
I0
tp1420
a(I22576924
I0
I0
tp1421
a(I22576924
I1
I0
tp1422
a(I22591297
I0
I1
tp1423
a(I22591297
I1
I1
tp1424
a(I22616944
I0
I1
tp1425
a(I22616944
I1
I0
tp1426
a(I22657498
I0
I1
tp1427
a(I22668427
I0
I0
tp1428
a(I22668427
I2
I0
tp1429
a(I22668427
I3
I0
tp1430
a(I22668427
I5
I0
tp1431
a(I22672340
I0
I1
tp1432
a(I22674166
I1
I0
tp1433
a(I22674166
I2
I0
tp1434
a(I22693260
I0
I1
tp1435
a(I22694038
I0
I0
tp1436
a(I22696168
I0
I1
tp1437
a(I22700457
I4
I1
tp1438
a(I22741040
I0
I1
tp1439
a(I22741040
I1
I0
tp1440
a(I22741040
I3
I0
tp1441
a(I22750555
I0
I0
tp1442
a(I22769503
I0
I1
tp1443
a(I22769503
I1
I0
tp1444
a(I22775168
I1
I0
tp1445
a(I22827317
I0
I0
tp1446
a(I22856566
I0
I1
tp1447
a(I22880882
I0
I1
tp1448
a(I22893271
I0
I1
tp1449
a(I22893271
I1
I1
tp1450
a(I22897195
I1
I1
tp1451
a(I22912351
I0
I0
tp1452
a(I22953550
I0
I0
tp1453
a(I22953550
I1
I0
tp1454
a(I22953550
I4
I0
tp1455
a(I22959268
I1
I0
tp1456
a(I22961541
I0
I1
tp1457
a(I22961541
I1
I0
tp1458
a(I23024861
I0
I0
tp1459
a(I23025497
I0
I1
tp1460
a(I23039188
I1
I1
tp1461
a(I23039664
I1
I1
tp1462
a(I23046827
I0
I1
tp1463
a(I23046827
I1
I0
tp1464
a(I23047215
I0
I1
tp1465
a(I23047215
I1
I0
tp1466
a(I23059398
I1
I1
tp1467
a(I23059398
I3
I1
tp1468
a(I23100704
I0
I1
tp1469
a(I23100704
I1
I1
tp1470
a(I23114734
I1
I0
tp1471
a(I23114734
I2
I0
tp1472
a(I23147735
I1
I1
tp1473
a(I23177075
I0
I1
tp1474
a(I23177075
I1
I0
tp1475
a(I23206062
I0
I0
tp1476
a(I23206062
I1
I1
tp1477
a(I23224696
I1
I0
tp1478
a(I23231840
I0
I1
tp1479
a(I23231840
I1
I1
tp1480
a(I23231840
I3
I0
tp1481
a(I23231840
I4
I0
tp1482
a(I23231840
I5
I0
tp1483
a(I23231840
I6
I0
tp1484
a(I23246125
I0
I1
tp1485
a(I23271192
I0
I1
tp1486
a(I23271192
I2
I0
tp1487
a(I23271192
I3
I0
tp1488
a(I23297197
I0
I1
tp1489
a(I23297197
I1
I0
tp1490
a(I23310630
I2
I0
tp1491
a(I23310630
I3
I0
tp1492
a(I23312803
I0
I1
tp1493
a(I23317342
I0
I1
tp1494
a(I23317342
I1
I0
tp1495
a(I23323675
I0
I1
tp1496
a(I23368164
I0
I1
tp1497
a(I23368164
I2
I0
tp1498
a(I23388668
I0
I1
tp1499
a(I23388668
I1
I1
tp1500
a(I23402150
I1
I1
tp1501
a(I23429426
I2
I1
tp1502
a(I23429968
I0
I1
tp1503
a(I23429968
I1
I1
tp1504
a(I23460155
I1
I0
tp1505
a(I23555829
I2
I0
tp1506
a(I23555995
I1
I0
tp1507
a(I23575195
I1
I1
tp1508
a(I23576318
I0
I1
tp1509
a(I23576318
I1
I1
tp1510
a(I23613138
I1
I0
tp1511
a(I23614259
I0
I1
tp1512
a(I23626026
I1
I0
tp1513
a(I23626026
I2
I0
tp1514
a(I23626026
I3
I0
tp1515
a(I23635576
I1
I0
tp1516
a(I23642406
I0
I1
tp1517
a(I23648826
I0
I1
tp1518
a(I23648826
I1
I0
tp1519
a(I23669024
I1
I1
tp1520
a(I23677258
I1
I0
tp1521
a(I23699378
I0
I0
tp1522
a(I23699378
I2
I0
tp1523
a(I23699378
I3
I0
tp1524
a(I23718340
I0
I0
tp1525
a(I23718340
I3
I1
tp1526
a(I23732057
I0
I1
tp1527
a(I23732057
I1
I0
tp1528
a(I23733922
I0
I1
tp1529
a(I23733922
I1
I1
tp1530
a(I23795777
I0
I0
tp1531
a(I23795777
I1
I1
tp1532
a(I23795777
I2
I0
tp1533
a(I23832259
I1
I1
tp1534
a(I23833763
I1
I0
tp1535
a(I23833763
I2
I0
tp1536
a(I23837696
I0
I1
tp1537
a(I23837696
I2
I1
tp1538
a(I23866378
I0
I0
tp1539
a(I23866378
I1
I0
tp1540
a(I23866378
I2
I1
tp1541
a(I23918947
I0
I1
tp1542
a(I23923658
I0
I0
tp1543
a(I23961648
I1
I0
tp1544
a(I23961648
I2
I0
tp1545
a(I24002551
I0
I1
tp1546
a(I24004106
I0
I1
tp1547
a(I24004106
I1
I0
tp1548
a(I24004106
I2
I0
tp1549
a(I24024966
I1
I0
tp1550
a(I24024966
I2
I0
tp1551
a(I24024966
I3
I0
tp1552
a(I24042596
I0
I1
tp1553
a(I24055067
I1
I1
tp1554
a(I24065575
I2
I1
tp1555
a(I24072567
I0
I1
tp1556
a(I24072567
I1
I1
tp1557
a(I24084817
I0
I0
tp1558
a(I24084817
I1
I0
tp1559
a(I24084817
I2
I0
tp1560
a(I24084817
I6
I1
tp1561
a(I24097930
I2
I1
tp1562
a(I24127569
I0
I0
tp1563
a(I24127569
I1
I0
tp1564
a(I24144766
I0
I1
tp1565
a(I24144766
I1
I1
tp1566
a(I24145957
I1
I1
tp1567
a(I24145957
I2
I1
tp1568
a(I24162868
I0
I1
tp1569
a(I24172896
I0
I0
tp1570
a(I24172896
I1
I0
tp1571
a(I24191793
I1
I1
tp1572
a(I24195234
I1
I0
tp1573
a(I24195898
I1
I0
tp1574
a(I24216198
I0
I1
tp1575
a(I24243929
I2
I0
tp1576
a(I24269756
I0
I1
tp1577
a(I24269756
I1
I1
tp1578
a(I24269756
I3
I0
tp1579
a(I24285311
I0
I0
tp1580
a(I24285311
I1
I0
tp1581
a(I24314839
I0
I1
tp1582
a(I24325232
I1
I0
tp1583
a(I24327683
I0
I1
tp1584
a(I24327683
I1
I1
tp1585
a(I24418864
I1
I0
tp1586
a(I24427828
I3
I1
tp1587
a(I24438325
I2
I0
tp1588
a(I24438325
I3
I0
tp1589
a(I24445991
I1
I1
tp1590
a(I24458430
I1
I0
tp1591
a(I24465953
I0
I0
tp1592
a(I24465953
I1
I0
tp1593
a(I24481614
I0
I1
tp1594
a(I24481614
I1
I0
tp1595
a(I24495059
I0
I0
tp1596
a(I24495059
I2
I0
tp1597
a(I24495452
I1
I0
tp1598
a(I24518769
I1
I0
tp1599
a(I24584784
I0
I1
tp1600
a(I24638781
I1
I0
tp1601
a(I24638781
I2
I1
tp1602
a(I24638781
I3
I0
tp1603
a(I24642669
I0
I1
tp1604
a(I24674723
I1
I1
tp1605
a(I24697061
I1
I0
tp1606
a(I24717673
I1
I1
tp1607
a(I24728933
I1
I0
tp1608
a(I24746231
I1
I1
tp1609
a(I24747191
I0
I1
tp1610
a(I24747996
I2
I0
tp1611
a(I24748179
I1
I0
tp1612
a(I24752712
I0
I1
tp1613
a(I24752712
I1
I1
tp1614
a(I24772845
I0
I1
tp1615
a(I24772845
I1
I0
tp1616
a(I24780464
I0
I0
tp1617
a(I24787224
I0
I1
tp1618
a(I24787224
I1
I0
tp1619
a(I24787224
I6
I0
tp1620
a(I24833045
I1
I0
tp1621
a(I24833817
I1
I1
tp1622
a(I24834560
I0
I1
tp1623
a(I24896943
I0
I1
tp1624
a(I24900064
I0
I1
tp1625
a(I24915181
I0
I1
tp1626
a(I24915181
I2
I0
tp1627
a(I24918515
I0
I1
tp1628
a(I24918515
I1
I1
tp1629
a(I24928086
I0
I1
tp1630
a(I24941665
I0
I1
tp1631
a(I25000584
I0
I0
tp1632
a(I25000584
I1
I0
tp1633
a(I25002150
I0
I0
tp1634
a(I25002150
I1
I0
tp1635
a(I25002150
I2
I0
tp1636
a(I25002459
I1
I1
tp1637
a(I25002459
I2
I1
tp1638
a(I25024087
I0
I1
tp1639
a(I25024087
I1
I0
tp1640
a(I25024087
I2
I1
tp1641
a(I25025291
I0
I1
tp1642
a(I25047254
I3
I0
tp1643
a(I25047254
I5
I0
tp1644
a(I25068002
I2
I0
tp1645
a(I25088066
I0
I0
tp1646
a(I25100105
I2
I0
tp1647
a(I25104929
I0
I0
tp1648
a(I25104929
I1
I0
tp1649
a(I25104929
I2
I0
tp1650
a(I25141467
I0
I1
tp1651
a(I25141467
I1
I0
tp1652
a(I25217124
I0
I1
tp1653
a(I25217124
I1
I1
tp1654
a(I25217124
I2
I1
tp1655
a(I25244751
I0
I1
tp1656
a(I25244751
I2
I0
tp1657
a(I25249663
I1
I0
tp1658
a(I25255535
I1
I0
tp1659
a(I25269476
I0
I1
tp1660
a(I25269476
I1
I1
tp1661
a(I25277092
I0
I1
tp1662
a(I25277092
I1
I1
tp1663
a(I25286811
I0
I1
tp1664
a(I25286811
I1
I0
tp1665
a(I25296219
I0
I1
tp1666
a(I25296219
I1
I1
tp1667
a(I25344576
I0
I1
tp1668
a(I25344576
I1
I0
tp1669
a(I25345843
I0
I0
tp1670
a(I25345843
I1
I1
tp1671
a(I25435908
I1
I1
tp1672
a(I25435908
I3
I0
tp1673
a(I25457718
I3
I1
tp1674
a(I25467360
I3
I0
tp1675
a(I25467360
I5
I0
tp1676
a(I25467360
I6
I0
tp1677
a(I25467360
I7
I0
tp1678
a(I25480433
I0
I1
tp1679
a(I25480433
I1
I1
tp1680
a(I25493559
I1
I0
tp1681
a(I25513929
I2
I0
tp1682
a(I25537262
I1
I0
tp1683
a(I25537262
I2
I0
tp1684
a(I25537262
I3
I0
tp1685
a(I25538578
I0
I1
tp1686
a(I25538578
I1
I0
tp1687
a(I25541651
I0
I1
tp1688
a(I25641980
I0
I0
tp1689
a(I25641980
I1
I0
tp1690
a(I25641980
I3
I0
tp1691
a(I25649412
I0
I0
tp1692
a(I25649412
I2
I0
tp1693
a(I25664682
I0
I0
tp1694
a(I25664682
I1
I0
tp1695
a(I25664682
I2
I0
tp1696
a(I25690354
I2
I0
tp1697
a(I25690354
I3
I0
tp1698
a(I25690354
I4
I0
tp1699
a(I25690354
I5
I0
tp1700
a(I25690354
I6
I0
tp1701
a(I25690354
I8
I0
tp1702
a(I25690778
I0
I0
tp1703
a(I25690778
I1
I0
tp1704
a(I25705612
I0
I1
tp1705
a(I25705612
I4
I1
tp1706
a(I25705612
I5
I0
tp1707
a(I25728442
I0
I0
tp1708
a(I25744399
I0
I1
tp1709
a(I25744399
I2
I1
tp1710
a(I25746147
I0
I0
tp1711
a(I25746147
I1
I0
tp1712
a(I25757650
I0
I1
tp1713
a(I25765631
I0
I1
tp1714
a(I25838448
I0
I1
tp1715
a(I25838448
I1
I1
tp1716
a(I25859572
I0
I1
tp1717
a(I25859572
I1
I0
tp1718
a(I25859572
I2
I0
tp1719
a(I25859572
I3
I0
tp1720
a(I25882275
I0
I1
tp1721
a(I25882275
I1
I0
tp1722
a(I25923521
I2
I0
tp1723
a(I25932166
I0
I1
tp1724
a(I25932166
I1
I0
tp1725
a(I25946008
I1
I0
tp1726
a(I25959543
I0
I1
tp1727
a(I25959543
I1
I0
tp1728
a(I25996817
I1
I0
tp1729
a(I26059710
I1
I1
tp1730
a(I26063269
I0
I0
tp1731
a(I26126880
I0
I1
tp1732
a(I26163563
I0
I1
tp1733
a(I26163563
I1
I1
tp1734
a(I26187054
I0
I1
tp1735
a(I26187054
I1
I0
tp1736
a(I26205922
I0
I0
tp1737
a(I26205922
I2
I0
tp1738
a(I26205922
I3
I0
tp1739
a(I26222720
I0
I1
tp1740
a(I26240228
I0
I1
tp1741
a(I26265015
I0
I0
tp1742
a(I26265015
I1
I0
tp1743
a(I26277322
I2
I0
tp1744
a(I26279903
I0
I1
tp1745
a(I26286980
I0
I1
tp1746
a(I26317418
I1
I0
tp1747
a(I26321557
I2
I1
tp1748
a(I26427128
I1
I1
tp1749
a(I26427128
I2
I0
tp1750
a(I26450673
I0
I0
tp1751
a(I26450673
I1
I0
tp1752
a(I26453595
I0
I1
tp1753
a(I26487617
I1
I1
tp1754
a(I26497396
I0
I1
tp1755
a(I26497396
I1
I0
tp1756
a(I26498100
I2
I0
tp1757
a(I26498794
I0
I1
tp1758
a(I26511109
I0
I1
tp1759
a(I26511109
I1
I1
tp1760
a(I26552266
I1
I0
tp1761
a(I26562487
I1
I0
tp1762
a(I26563683
I1
I0
tp1763
a(I26613341
I0
I1
tp1764
a(I26629789
I0
I1
tp1765
a(I26629789
I2
I1
tp1766
a(I26666329
I0
I1
tp1767
a(I26683175
I3
I0
tp1768
a(I26700006
I0
I1
tp1769
a(I26700006
I1
I1
tp1770
a(I26716576
I1
I0
tp1771
a(I26725669
I1
I0
tp1772
a(I26787410
I0
I1
tp1773
a(I26787410
I1
I1
tp1774
a(I26787410
I3
I0
tp1775
a(I26812595
I0
I1
tp1776
a(I26812595
I1
I1
tp1777
a(I26826838
I0
I1
tp1778
a(I26830752
I3
I0
tp1779
a(I26871083
I0
I0
tp1780
a(I26871083
I1
I0
tp1781
a(I26871083
I3
I0
tp1782
a(I26871083
I5
I0
tp1783
a(I26871083
I6
I0
tp1784
a(I26871083
I7
I0
tp1785
a(I26889734
I0
I0
tp1786
a(I26889734
I1
I0
tp1787
a(I26897708
I0
I1
tp1788
a(I26911426
I0
I1
tp1789
a(I26911426
I1
I1
tp1790
a(I26922284
I1
I0
tp1791
a(I26922284
I4
I0
tp1792
a(I26969526
I0
I0
tp1793
a(I26969526
I1
I0
tp1794
a(I26983187
I1
I0
tp1795
a(I26983187
I4
I0
tp1796
a(I26983187
I6
I0
tp1797
a(I26983187
I8
I0
tp1798
a(I26983187
I10
I0
tp1799
a(I26983187
I11
I0
tp1800
a(I26983187
I15
I0
tp1801
a(I27007260
I0
I1
tp1802
a(I27007260
I1
I1
tp1803
a(I27024392
I0
I1
tp1804
a(I27024392
I1
I1
tp1805
a(I27027500
I1
I1
tp1806
a(I27027500
I2
I1
tp1807
a(I27031053
I0
I1
tp1808
a(I27032670
I0
I1
tp1809
a(I27032670
I1
I1
tp1810
a(I27054358
I1
I1
tp1811
a(I27064243
I0
I1
tp1812
a(I27103165
I3
I0
tp1813
a(I27112449
I1
I0
tp1814
a(I27139744
I0
I1
tp1815
a(I27139744
I2
I0
tp1816
a(I27150664
I0
I1
tp1817
a(I27159189
I0
I1
tp1818
a(I27178829
I1
I0
tp1819
a(I27193884
I1
I1
tp1820
a(I27216944
I1
I1
tp1821
a(I27216950
I0
I1
tp1822
a(I27255080
I0
I1
tp1823
a(I27257991
I0
I1
tp1824
a(I27265939
I0
I1
tp1825
a(I27270532
I0
I1
tp1826
a(I27270532
I1
I1
tp1827
a(I27302220
I0
I0
tp1828
a(I27308840
I1
I0
tp1829
a(I27327513
I0
I0
tp1830
a(I27331006
I1
I1
tp1831
a(I27356890
I0
I1
tp1832
a(I27356890
I1
I1
tp1833
a(I27407485
I2
I1
tp1834
a(I27419345
I1
I1
tp1835
a(I27419345
I2
I1
tp1836
a(I27458073
I0
I0
tp1837
a(I27491734
I0
I0
tp1838
a(I27491988
I0
I1
tp1839
a(I27491988
I1
I0
tp1840
a(I27491988
I2
I1
tp1841
a(I27551521
I0
I1
tp1842
a(I27551521
I1
I1
tp1843
a(I27551921
I0
I1
tp1844
a(I27551921
I2
I0
tp1845
a(I27576462
I1
I0
tp1846
a(I27585173
I1
I0
tp1847
a(I27605834
I1
I0
tp1848
a(I27615872
I0
I1
tp1849
a(I27665039
I0
I1
tp1850
a(I27665039
I1
I0
tp1851
a(I27674145
I0
I1
tp1852
a(I27676866
I0
I1
tp1853
a(I27724543
I2
I1
tp1854
a(I27733482
I1
I0
tp1855
a(I27733482
I2
I0
tp1856
a(I27739381
I0
I1
tp1857
a(I27739381
I1
I1
tp1858
a(I27746297
I0
I0
tp1859
a(I27747712
I1
I0
tp1860
a(I27773141
I0
I1
tp1861
a(I27773141
I1
I1
tp1862
a(I27779615
I0
I1
tp1863
a(I27779615
I1
I0
tp1864
a(I27793543
I1
I0
tp1865
a(I27805919
I2
I1
tp1866
a(I27810523
I1
I1
tp1867
a(I27823447
I0
I0
tp1868
a(I27827982
I2
I0
tp1869
a(I27827982
I3
I0
tp1870
a(I27855146
I0
I1
tp1871
a(I27855146
I1
I0
tp1872
a(I27857842
I0
I0
tp1873
a(I27857842
I1
I0
tp1874
a(I27884051
I1
I0
tp1875
a(I27884051
I2
I0
tp1876
a(I27885989
I1
I1
tp1877
a(I27914360
I1
I0
tp1878
a(I27914360
I2
I0
tp1879
a(I27914360
I4
I0
tp1880
a(I27925861
I0
I0
tp1881
a(I27947419
I0
I0
tp1882
a(I27947419
I2
I0
tp1883
a(I27947419
I3
I0
tp1884
a(I27960965
I0
I1
tp1885
a(I28002993
I0
I1
tp1886
a(I28002993
I1
I0
tp1887
a(I28020874
I0
I1
tp1888
a(I28036818
I0
I1
tp1889
a(I28036818
I1
I0
tp1890
a(I28059257
I0
I0
tp1891
a(I28059257
I1
I0
tp1892
a(I28059257
I2
I0
tp1893
a(I28059257
I3
I0
tp1894
a(I28067258
I1
I0
tp1895
a(I28072914
I0
I0
tp1896
a(I28072914
I1
I0
tp1897
a(I28072914
I2
I0
tp1898
a(I28072914
I3
I0
tp1899
a(I28076006
I0
I1
tp1900
a(I28076006
I1
I0
tp1901
a(I28083576
I0
I1
tp1902
a(I28083576
I1
I0
tp1903
a(I28104377
I0
I0
tp1904
a(I28104377
I1
I1
tp1905
a(I28104377
I3
I1
tp1906
a(I28176483
I0
I1
tp1907
a(I28187921
I0
I1
tp1908
a(I28198883
I1
I0
tp1909
a(I28199359
I0
I0
tp1910
a(I28208430
I0
I1
tp1911
a(I28208430
I1
I1
tp1912
a(I28244029
I1
I1
tp1913
a(I28246655
I0
I1
tp1914
a(I28255693
I0
I1
tp1915
a(I28255693
I2
I0
tp1916
a(I28257632
I0
I1
tp1917
a(I28257632
I1
I1
tp1918
a(I28267563
I0
I0
tp1919
a(I28267563
I2
I0
tp1920
a(I28267563
I3
I0
tp1921
a(I28280507
I0
I1
tp1922
a(I28280507
I1
I0
tp1923
a(I28332217
I0
I0
tp1924
a(I28332217
I1
I0
tp1925
a(I28348485
I0
I1
tp1926
a(I28348485
I1
I0
tp1927
a(I28348485
I3
I0
tp1928
a(I28348838
I1
I1
tp1929
a(I28356451
I0
I0
tp1930
a(I28364676
I2
I0
tp1931
a(I28387109
I0
I0
tp1932
a(I28387109
I1
I0
tp1933
a(I28387109
I2
I1
tp1934
a(I28387109
I3
I0
tp1935
a(I28404183
I0
I1
tp1936
a(I28404183
I1
I0
tp1937
a(I28404183
I2
I0
tp1938
a(I28404183
I3
I1
tp1939
a(I28416559
I3
I0
tp1940
a(I28416678
I1
I1
tp1941
a(I28418901
I1
I0
tp1942
a(I28419477
I1
I0
tp1943
a(I28431519
I0
I0
tp1944
a(I28431519
I2
I0
tp1945
a(I28431519
I3
I0
tp1946
a(I28431519
I4
I0
tp1947
a(I28431519
I5
I0
tp1948
a(I28438247
I1
I1
tp1949
a(I28443428
I1
I0
tp1950
a(I28461458
I1
I1
tp1951
a(I28467688
I0
I1
tp1952
a(I28467688
I1
I1
tp1953
a(I28486144
I0
I1
tp1954
a(I28486144
I1
I1
tp1955
a(I28486550
I0
I1
tp1956
a(I28486550
I1
I0
tp1957
a(I28500718
I1
I1
tp1958
a(I28500718
I2
I1
tp1959
a(I28510518
I0
I1
tp1960
a(I28566041
I0
I0
tp1961
a(I28566041
I1
I0
tp1962
a(I28566041
I2
I0
tp1963
a(I28566041
I3
I0
tp1964
a(I28566041
I4
I0
tp1965
a(I28596212
I1
I0
tp1966
a(I28606124
I1
I0
tp1967
a(I28606124
I2
I0
tp1968
a(I28616651
I1
I1
tp1969
a(I28617958
I2
I0
tp1970
a(I28647371
I2
I0
tp1971
a(I28647371
I3
I1
tp1972
a(I28654483
I0
I1
tp1973
a(I28654483
I1
I0
tp1974
a(I28658817
I0
I1
tp1975
a(I28658817
I1
I0
tp1976
a(I28658817
I2
I1
tp1977
a(I28665356
I0
I1
tp1978
a(I28677840
I2
I1
tp1979
a(I28677840
I3
I0
tp1980
a(I28687087
I2
I0
tp1981
a(I28716265
I0
I1
tp1982
a(I28754280
I0
I1
tp1983
a(I28754280
I1
I1
tp1984
a(I28754280
I2
I1
tp1985
a(I28755798
I0
I1
tp1986
a(I28755798
I1
I0
tp1987
a(I28766133
I0
I0
tp1988
a(I28767484
I1
I0
tp1989
a(I28767484
I2
I1
tp1990
a(I28774852
I0
I1
tp1991
a(I28795561
I0
I0
tp1992
a(I28795561
I2
I0
tp1993
a(I28800634
I0
I1
tp1994
a(I28812868
I0
I0
tp1995
a(I28812868
I1
I1
tp1996
a(I28823052
I0
I0
tp1997
a(I28823052
I2
I0
tp1998
a(I28823052
I3
I0
tp1999
a(I28823170
I1
I1
tp2000
a(I28823170
I2
I1
tp2001
a(I28855043
I0
I1
tp2002
a(I28868384
I0
I1
tp2003
a(I28868384
I1
I0
tp2004
a(I28898735
I1
I0
tp2005
a(I28907503
I1
I0
tp2006
a(I29033262
I1
I0
tp2007
a(I29036344
I0
I0
tp2008
a(I29036344
I1
I0
tp2009
a(I29041324
I1
I0
tp2010
a(I29083478
I0
I1
tp2011
a(I29087010
I0
I1
tp2012
a(I29112610
I0
I0
tp2013
a(I29112610
I1
I1
tp2014
a(I29114133
I1
I0
tp2015
a(I29114975
I1
I0
tp2016
a(I29153805
I1
I0
tp2017
a(I29153930
I0
I1
tp2018
a(I29155628
I0
I1
tp2019
a(I29192826
I1
I0
tp2020
a(I29192826
I2
I0
tp2021
a(I29195983
I0
I1
tp2022
a(I29195983
I1
I1
tp2023
a(I29224567
I0
I0
tp2024
a(I29224567
I2
I0
tp2025
a(I29238534
I1
I1
tp2026
a(I29258758
I0
I1
tp2027
a(I29258758
I1
I0
tp2028
a(I29308274
I1
I0
tp2029
a(I29308274
I2
I0
tp2030
a(I29318963
I0
I1
tp2031
a(I29318963
I1
I0
tp2032
a(I29327493
I0
I0
tp2033
a(I29351492
I1
I0
tp2034
a(I29351492
I2
I0
tp2035
a(I29356022
I0
I0
tp2036
a(I29356022
I1
I0
tp2037
a(I29356022
I2
I0
tp2038
a(I29365357
I0
I0
tp2039
a(I29384588
I1
I1
tp2040
a(I29392606
I1
I1
tp2041
a(I29392606
I2
I1
tp2042
a(I29395674
I1
I0
tp2043
a(I29415538
I1
I0
tp2044
a(I29481485
I0
I0
tp2045
a(I29481485
I2
I0
tp2046
a(I29497029
I0
I1
tp2047
a(I29509781
I0
I0
tp2048
a(I29509781
I2
I0
tp2049
a(I29514238
I0
I1
tp2050
a(I29527654
I0
I0
tp2051
a(I29527654
I1
I0
tp2052
a(I29538559
I1
I1
tp2053
a(I29547906
I0
I0
tp2054
a(I29573963
I0
I1
tp2055
a(I29573963
I1
I1
tp2056
a(I29600513
I0
I1
tp2057
a(I29600513
I1
I0
tp2058
a(I29643161
I0
I0
tp2059
a(I29643161
I1
I0
tp2060
a(I29643161
I2
I0
tp2061
a(I29703388
I0
I1
tp2062
a(I29721519
I1
I0
tp2063
a(I29744665
I0
I0
tp2064
a(I29744665
I1
I0
tp2065
a(I29761118
I1
I0
tp2066
a(I29761118
I2
I0
tp2067
a(I29785451
I0
I1
tp2068
a(I29785451
I1
I1
tp2069
a(I29799542
I0
I1
tp2070
a(I29799542
I1
I0
tp2071
a(I29831030
I1
I1
tp2072
a(I29867175
I0
I1
tp2073
a(I29867175
I2
I1
tp2074
a(I29870041
I0
I0
tp2075
a(I29870041
I1
I0
tp2076
a(I29908931
I1
I0
tp2077
a(I29910229
I0
I1
tp2078
a(I29910229
I1
I0
tp2079
a(I29910229
I2
I0
tp2080
a(I29935056
I0
I1
tp2081
a(I29935056
I1
I1
tp2082
a(I29935056
I2
I1
tp2083
a(I29947844
I0
I1
tp2084
a(I29950856
I0
I0
tp2085
a(I29950856
I2
I0
tp2086
a(I29952373
I0
I1
tp2087
a(I29968046
I0
I1
tp2088
a(I29968046
I1
I1
tp2089
a(I29968046
I2
I1
tp2090
a(I29969430
I1
I0
tp2091
a(I29974139
I0
I0
tp2092
a(I29998052
I0
I1
tp2093
a(I29998052
I3
I1
tp2094
a(I29998052
I4
I1
tp2095
a(I29998052
I5
I0
tp2096
a(I29998052
I10
I0
tp2097
a(I29998052
I12
I0
tp2098
a(I29998052
I16
I0
tp2099
a(I29998052
I18
I0
tp2100
a(I30002261
I0
I0
tp2101
a(I30002261
I2
I0
tp2102
a(I30053381
I0
I0
tp2103
a(I30053381
I1
I0
tp2104
a(I30068271
I2
I0
tp2105
a(I30068271
I3
I1
tp2106
a(I30076583
I0
I0
tp2107
a(I30133281
I2
I0
tp2108
a(I30170614
I2
I1
tp2109
a(I30180241
I3
I0
tp2110
a(I30196224
I0
I1
tp2111
a(I30196224
I2
I1
tp2112
a(I30198481
I2
I1
tp2113
a(I30214489
I0
I0
tp2114
a(I30214489
I1
I1
tp2115
a(I30229104
I2
I1
tp2116
a(I30242208
I2
I0
tp2117
a(I30242208
I3
I0
tp2118
a(I30242208
I4
I0
tp2119
a(I30242208
I5
I0
tp2120
a(I30242208
I6
I0
tp2121
a(I30242208
I7
I0
tp2122
a(I30242208
I9
I0
tp2123
a(I30242208
I11
I0
tp2124
a(I30268750
I0
I1
tp2125
a(I30272538
I0
I1
tp2126
a(I30272538
I1
I0
tp2127
a(I30272538
I2
I0
tp2128
a(I30272538
I3
I0
tp2129
a(I30272538
I6
I0
tp2130
a(I30329252
I1
I0
tp2131
a(I30329252
I2
I0
tp2132
a(I30338961
I2
I0
tp2133
a(I30406324
I1
I0
tp2134
a(I30411388
I1
I0
tp2135
a(I30414578
I0
I1
tp2136
a(I30443894
I0
I1
tp2137
a(I30443894
I1
I1
tp2138
a(I30447975
I0
I0
tp2139
a(I30447975
I1
I0
tp2140
a(I30506746
I0
I1
tp2141
a(I30506746
I1
I0
tp2142
a(I30507442
I0
I0
tp2143
a(I30507442
I2
I0
tp2144
a(I30507442
I4
I0
tp2145
a(I30528673
I0
I1
tp2146
a(I30528673
I1
I0
tp2147
a(I30559807
I0
I1
tp2148
a(I30578068
I0
I0
tp2149
a(I30578068
I1
I0
tp2150
a(I30602088
I0
I0
tp2151
a(I30602088
I1
I0
tp2152
a(I30620595
I0
I1
tp2153
a(I30667382
I1
I0
tp2154
a(I30683301
I0
I0
tp2155
a(I30683301
I2
I0
tp2156
a(I30683325
I0
I1
tp2157
a(I30683325
I1
I1
tp2158
a(I30685363
I0
I1
tp2159
a(I30685363
I1
I0
tp2160
a(I30701329
I2
I1
tp2161
a(I30727894
I2
I1
tp2162
a(I30727894
I3
I1
tp2163
a(I30777540
I1
I0
tp2164
a(I30793198
I1
I0
tp2165
a(I30795450
I1
I1
tp2166
a(I30801180
I1
I1
tp2167
a(I30837683
I0
I1
tp2168
a(I30904903
I0
I1
tp2169
a(I30904903
I1
I0
tp2170
a(I30904903
I2
I0
tp2171
a(I30909414
I0
I0
tp2172
a(I30909414
I1
I0
tp2173
a(I30909414
I2
I0
tp2174
a(I30909414
I3
I0
tp2175
a(I30909414
I5
I0
tp2176
a(I30909414
I7
I1
tp2177
a(I30949202
I0
I1
tp2178
a(I30949202
I1
I0
tp2179
a(I30955735
I0
I1
tp2180
a(I30960440
I1
I0
tp2181
a(I30960440
I2
I0
tp2182
a(I30977603
I0
I1
tp2183
a(I30992225
I1
I0
tp2184
a(I31009455
I0
I1
tp2185
a(I31009455
I1
I1
tp2186
a(I31011179
I0
I1
tp2187
a(I31011179
I1
I0
tp2188
a(I31011565
I0
I1
tp2189
a(I31011565
I1
I1
tp2190
a(I31014848
I2
I0
tp2191
a(I31021283
I0
I1
tp2192
a(I31021283
I1
I0
tp2193
a(I31029467
I0
I1
tp2194
a(I31029467
I1
I1
tp2195
a(I31076841
I1
I0
tp2196
a(I31078921
I0
I1
tp2197
a(I31078921
I1
I0
tp2198
a(I31105362
I0
I0
tp2199
a(I31105362
I1
I0
tp2200
a(I31105362
I2
I0
tp2201
a(I31105362
I3
I0
tp2202
a(I31124914
I1
I1
tp2203
a(I31124914
I2
I0
tp2204
a(I31124914
I3
I0
tp2205
a(I31137183
I0
I1
tp2206
a(I31137766
I0
I0
tp2207
a(I31146021
I2
I0
tp2208
a(I31146021
I3
I0
tp2209
a(I31149123
I0
I1
tp2210
a(I31149123
I1
I0
tp2211
a(I31149123
I2
I0
tp2212
a(I31162560
I0
I1
tp2213
a(I31162560
I1
I1
tp2214
a(I31193239
I0
I1
tp2215
a(I31202918
I0
I0
tp2216
a(I31202918
I2
I0
tp2217
a(I31230972
I1
I0
tp2218
a(I31335460
I0
I1
tp2219
a(I31335460
I1
I0
tp2220
a(I31347715
I0
I0
tp2221
a(I31347715
I1
I0
tp2222
a(I31349898
I0
I1
tp2223
a(I31364390
I0
I1
tp2224
a(I31364390
I1
I0
tp2225
a(I31367608
I0
I1
tp2226
a(I31370701
I0
I0
tp2227
a(I31370701
I1
I1
tp2228
a(I31387880
I1
I1
tp2229
a(I31390194
I0
I0
tp2230
a(I31392017
I0
I1
tp2231
a(I31392017
I1
I0
tp2232
a(I31393692
I0
I0
tp2233
a(I31393692
I4
I0
tp2234
a(I31394463
I0
I1
tp2235
a(I31404238
I0
I1
tp2236
a(I31404238
I2
I0
tp2237
a(I31419156
I0
I1
tp2238
a(I31419156
I1
I0
tp2239
a(I31440326
I1
I1
tp2240
a(I31456902
I0
I0
tp2241
a(I31456902
I3
I0
tp2242
a(I31462265
I0
I0
tp2243
a(I31485414
I1
I1
tp2244
a(I31498516
I1
I0
tp2245
a(I31498844
I0
I1
tp2246
a(I31498844
I1
I0
tp2247
a(I31499985
I0
I1
tp2248
a(I31499985
I1
I0
tp2249
a(I31502786
I1
I1
tp2250
a(I31502786
I2
I1
tp2251
a(I31556782
I0
I1
tp2252
a(I31556782
I1
I0
tp2253
a(I31562534
I0
I0
tp2254
a(I31562534
I2
I0
tp2255
a(I31562641
I0
I1
tp2256
a(I31567882
I0
I1
tp2257
a(I31567882
I1
I1
tp2258
a(I31572425
I1
I1
tp2259
a(I31617530
I0
I1
tp2260
a(I31617530
I2
I1
tp2261
a(I31619128
I0
I1
tp2262
a(I31619128
I1
I0
tp2263
a(I31619128
I2
I0
tp2264
a(I31630708
I0
I1
tp2265
a(I31630708
I1
I0
tp2266
a(I31630753
I1
I0
tp2267
a(I31635818
I1
I0
tp2268
a(I31649843
I1
I1
tp2269
a(I31650674
I2
I0
tp2270
a(I31650674
I3
I0
tp2271
a(I31654215
I1
I1
tp2272
a(I31665106
I0
I1
tp2273
a(I31665106
I1
I1
tp2274
a(I31704411
I3
I0
tp2275
a(I31739074
I0
I1
tp2276
a(I31739074
I1
I0
tp2277
a(I31759951
I0
I1
tp2278
a(I31759951
I1
I0
tp2279
a(I31768613
I1
I1
tp2280
a(I31828240
I0
I1
tp2281
a(I31841487
I1
I0
tp2282
a(I31842707
I1
I0
tp2283
a(I31847577
I1
I1
tp2284
a(I31847577
I2
I0
tp2285
a(I31869890
I0
I1
tp2286
a(I31889359
I1
I0
tp2287
a(I31892559
I0
I0
tp2288
a(I31892559
I1
I0
tp2289
a(I31912253
I2
I0
tp2290
a(I31912253
I3
I0
tp2291
a(I31920197
I2
I0
tp2292
a(I31936573
I0
I0
tp2293
a(I31941020
I1
I0
tp2294
a(I31957215
I1
I1
tp2295
a(I31978879
I0
I1
tp2296
a(I32018206
I3
I1
tp2297
a(I32026028
I0
I1
tp2298
a(I32026028
I1
I0
tp2299
a(I32077660
I1
I1
tp2300
a(I32077660
I2
I0
tp2301
a(I32102801
I1
I1
tp2302
a(I32148804
I0
I1
tp2303
a(I32148804
I1
I1
tp2304
a(I32161369
I0
I0
tp2305
a(I32161369
I1
I1
tp2306
a(I32174535
I0
I1
tp2307
a(I32174535
I1
I1
tp2308
a(I32182116
I1
I0
tp2309
a(I32231491
I1
I1
tp2310
a(I32244565
I1
I1
tp2311
a(I32256393
I1
I0
tp2312
a(I32262334
I0
I1
tp2313
a(I32262334
I1
I1
tp2314
a(I32262334
I2
I1
tp2315
a(I32295637
I1
I0
tp2316
a(I32308382
I0
I0
tp2317
a(I32308382
I1
I0
tp2318
a(I32308382
I4
I0
tp2319
a(I32316244
I0
I1
tp2320
a(I32344022
I0
I1
tp2321
a(I32344022
I1
I0
tp2322
a(I32344022
I2
I1
tp2323
a(I32346156
I0
I1
tp2324
a(I32346156
I1
I0
tp2325
a(I32358269
I2
I0
tp2326
a(I32379895
I1
I0
tp2327
a(I32379895
I4
I0
tp2328
a(I32403846
I0
I1
tp2329
a(I32424555
I1
I0
tp2330
a(I32424555
I4
I0
tp2331
a(I32458370
I1
I0
tp2332
a(I32458370
I3
I0
tp2333
a(I32458370
I4
I0
tp2334
a(I32480553
I0
I1
tp2335
a(I32480553
I1
I0
tp2336
a(I32497161
I0
I1
tp2337
a(I32537153
I0
I0
tp2338
a(I32537153
I1
I0
tp2339
a(I32623285
I0
I0
tp2340
a(I32623285
I1
I1
tp2341
a(I32659345
I0
I1
tp2342
a(I32659345
I2
I0
tp2343
a(I32679481
I1
I0
tp2344
a(I32687664
I0
I1
tp2345
a(I32687664
I1
I0
tp2346
a(I32690945
I1
I1
tp2347
a(I32700996
I0
I1
tp2348
a(I32700996
I1
I0
tp2349
a(I32719686
I1
I0
tp2350
a(I32772190
I1
I0
tp2351
a(I32792411
I0
I0
tp2352
a(I32792411
I1
I1
tp2353
a(I32792411
I2
I0
tp2354
a(I32792411
I3
I0
tp2355
a(I32798908
I0
I1
tp2356
a(I32798908
I1
I1
tp2357
a(I32802833
I0
I1
tp2358
a(I32802833
I1
I0
tp2359
a(I32821122
I1
I1
tp2360
a(I32896987
I4
I0
tp2361
a(I32902648
I1
I0
tp2362
a(I32902648
I2
I0
tp2363
a(I32907015
I0
I0
tp2364
a(I32907015
I1
I0
tp2365
a(I32910848
I1
I0
tp2366
a(I32921049
I1
I0
tp2367
a(I32935232
I0
I1
tp2368
a(I32935232
I1
I1
tp2369
a(I32935585
I1
I0
tp2370
a(I32946908
I1
I0
tp2371
a(I32946908
I2
I0
tp2372
a(I32946908
I3
I0
tp2373
a(I32966627
I1
I1
tp2374
a(I32975636
I0
I0
tp2375
a(I32975636
I1
I0
tp2376
a(I32981875
I0
I1
tp2377
a(I32981875
I1
I1
tp2378
a(I32981875
I3
I1
tp2379
a(I33003547
I0
I0
tp2380
a(I33010861
I1
I1
tp2381
a(I33019600
I1
I1
tp2382
a(I33021916
I0
I1
tp2383
a(I33021916
I1
I0
tp2384
a(I33037416
I0
I1
tp2385
a(I33037416
I3
I0
tp2386
a(I33037416
I4
I0
tp2387
a(I33062288
I1
I1
tp2388
a(I33069366
I0
I0
tp2389
a(I33069366
I3
I0
tp2390
a(I33069366
I4
I0
tp2391
a(I33099417
I0
I1
tp2392
a(I33099417
I1
I1
tp2393
a(I33099417
I2
I0
tp2394
a(I33105265
I1
I0
tp2395
a(I33105265
I3
I0
tp2396
a(I33139927
I0
I1
tp2397
a(I33139927
I2
I1
tp2398
a(I33139927
I3
I0
tp2399
a(I33140945
I0
I0
tp2400
a(I33140945
I3
I0
tp2401
a(I33144460
I1
I0
tp2402
a(I33201383
I0
I0
tp2403
a(I33201383
I1
I0
tp2404
a(I33203746
I0
I1
tp2405
a(I33203746
I1
I1
tp2406
a(I33223682
I0
I1
tp2407
a(I33252350
I1
I0
tp2408
a(I33270388
I0
I1
tp2409
a(I33270388
I1
I1
tp2410
a(I33270413
I0
I0
tp2411
a(I33270413
I2
I0
tp2412
a(I33288420
I0
I1
tp2413
a(I33296707
I1
I1
tp2414
a(I33296707
I2
I1
tp2415
a(I33304356
I1
I0
tp2416
a(I33319664
I0
I0
tp2417
a(I33319664
I2
I0
tp2418
a(I33341000
I0
I1
tp2419
a(I33347648
I0
I1
tp2420
a(I33347648
I1
I1
tp2421
a(I33354950
I0
I1
tp2422
a(I33354950
I1
I0
tp2423
a(I33354950
I2
I0
tp2424
a(I33371558
I1
I0
tp2425
a(I33385238
I0
I1
tp2426
a(I33401529
I0
I1
tp2427
a(I33402355
I3
I1
tp2428
a(I33402355
I4
I1
tp2429
a(I33431816
I0
I0
tp2430
a(I33431816
I3
I0
tp2431
a(I33477811
I0
I1
tp2432
a(I33477811
I1
I0
tp2433
a(I33518124
I0
I1
tp2434
a(I33519408
I1
I1
tp2435
a(I33569374
I0
I1
tp2436
a(I33569374
I3
I0
tp2437
a(I33575575
I0
I1
tp2438
a(I33575575
I1
I1
tp2439
a(I33578676
I0
I1
tp2440
a(I33587404
I0
I1
tp2441
a(I33587404
I1
I1
tp2442
a(I33607716
I0
I0
tp2443
a(I33607716
I1
I0
tp2444
a(I33607716
I2
I0
tp2445
a(I33607716
I3
I0
tp2446
a(I33607716
I5
I0
tp2447
a(I33607716
I6
I0
tp2448
a(I33613596
I1
I0
tp2449
a(I33706780
I1
I1
tp2450
a(I33711511
I1
I0
tp2451
a(I33711511
I2
I0
tp2452
a(I33733189
I1
I1
tp2453
a(I33759539
I0
I0
tp2454
a(I33759539
I1
I1
tp2455
a(I33795081
I0
I0
tp2456
a(I33795081
I1
I0
tp2457
a(I33811240
I0
I1
tp2458
a(I33811240
I1
I1
tp2459
a(I33857555
I0
I1
tp2460
a(I33869234
I0
I0
tp2461
a(I33869234
I1
I0
tp2462
a(I33875238
I0
I1
tp2463
a(I33875238
I1
I0
tp2464
a(I33927174
I0
I0
tp2465
a(I33928554
I0
I1
tp2466
a(I33928554
I1
I0
tp2467
a(I33928554
I2
I0
tp2468
a(I33928554
I7
I0
tp2469
a(I33948731
I0
I0
tp2470
a(I33948731
I1
I0
tp2471
a(I33970546
I0
I1
tp2472
a(I33970546
I1
I1
tp2473
a(I33972303
I0
I0
tp2474
a(I33972303
I1
I0
tp2475
a(I33972303
I2
I0
tp2476
a(I33978569
I0
I1
tp2477
a(I34008175
I1
I0
tp2478
a(I34008175
I2
I0
tp2479
a(I34014527
I0
I1
tp2480
a(I34016799
I0
I1
tp2481
a(I34016799
I1
I0
tp2482
a(I34030902
I1
I0
tp2483
a(I34030902
I2
I0
tp2484
a(I34057756
I1
I0
tp2485
a(I34066053
I1
I0
tp2486
a(I34069642
I1
I0
tp2487
a(I34073053
I0
I1
tp2488
a(I34073053
I1
I0
tp2489
a(I34079643
I0
I0
tp2490
a(I34079643
I1
I0
tp2491
a(I34079643
I2
I0
tp2492
a(I34079643
I3
I0
tp2493
a(I34082065
I1
I0
tp2494
a(I34114554
I2
I0
tp2495
a(I34117408
I0
I0
tp2496
a(I34117408
I3
I0
tp2497
a(I34117408
I4
I0
tp2498
a(I34124733
I1
I0
tp2499
a(I34137398
I0
I0
tp2500
a(I34137398
I1
I1
tp2501
a(I34137572
I0
I0
tp2502
a(I34141855
I0
I0
tp2503
a(I34141855
I1
I1
tp2504
a(I34141855
I3
I1
tp2505
a(I34141855
I4
I1
tp2506
a(I34146679
I1
I1
tp2507
a(I34146928
I0
I1
tp2508
a(I34146928
I1
I1
tp2509
a(I34155132
I0
I0
tp2510
a(I34193415
I1
I0
tp2511
a(I34193415
I2
I0
tp2512
a(I34193415
I3
I0
tp2513
a(I34206921
I0
I1
tp2514
a(I34243214
I0
I0
tp2515
a(I34243214
I1
I0
tp2516
a(I34243214
I3
I0
tp2517
a(I34244726
I0
I0
tp2518
a(I34244726
I1
I0
tp2519
a(I34244726
I3
I0
tp2520
a(I34271014
I0
I0
tp2521
a(I34271014
I1
I0
tp2522
a(I34271014
I3
I0
tp2523
a(I34300499
I0
I0
tp2524
a(I34301088
I0
I1
tp2525
a(I34371807
I0
I1
tp2526
a(I34371807
I1
I1
tp2527
a(I34374393
I1
I1
tp2528
a(I34400455
I0
I1
tp2529
a(I34400455
I1
I1
tp2530
a(I34419926
I1
I0
tp2531
a(I34419926
I2
I0
tp2532
a(I34428730
I0
I1
tp2533
a(I34439723
I0
I1
tp2534
a(I34444319
I1
I1
tp2535
a(I34445707
I0
I1
tp2536
a(I34452644
I1
I0
tp2537
a(I34452644
I3
I0
tp2538
a(I34452644
I4
I0
tp2539
a(I34456661
I0
I0
tp2540
a(I34468751
I0
I1
tp2541
a(I34478011
I1
I0
tp2542
a(I34478011
I3
I0
tp2543
a(I34478011
I4
I0
tp2544
a(I34478011
I5
I0
tp2545
a(I34478011
I10
I0
tp2546
a(I34503246
I0
I1
tp2547
a(I34503246
I1
I0
tp2548
a(I34505283
I0
I1
tp2549
a(I34512219
I1
I0
tp2550
a(I34514629
I1
I1
tp2551
a(I34521703
I0
I1
tp2552
a(I34546949
I0
I1
tp2553
a(I34556645
I0
I1
tp2554
a(I34556645
I1
I1
tp2555
a(I34556645
I2
I1
tp2556
a(I34563454
I0
I0
tp2557
a(I34569966
I2
I1
tp2558
a(I34569966
I3
I1
tp2559
a(I34576433
I0
I1
tp2560
a(I34576433
I1
I1
tp2561
a(I34585582
I0
I0
tp2562
a(I34585582
I1
I0
tp2563
a(I34596082
I0
I1
tp2564
a(I34598020
I0
I1
tp2565
a(I34598020
I1
I1
tp2566
a(I34600056
I1
I0
tp2567
a(I34600056
I2
I0
tp2568
a(I34607271
I0
I1
tp2569
a(I34638457
I0
I1
tp2570
a(I34672986
I0
I0
tp2571
a(I34672986
I1
I0
tp2572
a(I34672986
I2
I1
tp2573
a(I34672986
I3
I0
tp2574
a(I34683678
I1
I1
tp2575
a(I34683678
I2
I0
tp2576
a(I34686485
I0
I1
tp2577
a(I34686485
I1
I1
tp2578
a(I34769801
I0
I1
tp2579
a(I34769801
I1
I1
tp2580
a(I34769801
I2
I0
tp2581
a(I34773317
I1
I1
tp2582
a(I34777323
I0
I1
tp2583
a(I34793225
I0
I1
tp2584
a(I34793225
I1
I0
tp2585
a(I34799167
I1
I0
tp2586
a(I34799167
I2
I0
tp2587
a(I34799167
I3
I0
tp2588
a(I34799167
I4
I0
tp2589
a(I34818228
I0
I1
tp2590
a(I34818228
I1
I1
tp2591
a(I34824864
I0
I1
tp2592
a(I34837194
I1
I0
tp2593
a(I34845096
I0
I0
tp2594
a(I34859683
I0
I0
tp2595
a(I34859683
I2
I0
tp2596
a(I34871024
I0
I0
tp2597
a(I34871024
I1
I0
tp2598
a(I34906231
I1
I1
tp2599
a(I34906286
I0
I0
tp2600
a(I34914655
I1
I0
tp2601
a(I34914655
I4
I0
tp2602
a(I34930630
I1
I0
tp2603
a(I34931548
I1
I1
tp2604
a(I34931548
I2
I0
tp2605
a(I34936864
I0
I1
tp2606
a(I34950064
I0
I1
tp2607
a(I34950064
I1
I0
tp2608
a(I34959948
I0
I1
tp2609
a(I34959948
I1
I1
tp2610
a(I34970283
I0
I1
tp2611
a(I34970283
I1
I1
tp2612
a(I34977252
I0
I1
tp2613
a(I34977252
I1
I0
tp2614
a(I34980059
I0
I1
tp2615
a(I34982928
I1
I0
tp2616
a(I35011168
I0
I1
tp2617
a(I35020513
I1
I0
tp2618
a(I35061363
I0
I1
tp2619
a(I35061363
I1
I1
tp2620
a(I35083540
I0
I1
tp2621
a(I35083540
I1
I0
tp2622
a(I35104102
I0
I1
tp2623
a(I35104102
I1
I1
tp2624
a(I35108136
I0
I1
tp2625
a(I35119291
I0
I1
tp2626
a(I35153942
I1
I0
tp2627
a(I35164333
I0
I1
tp2628
a(I35197854
I1
I1
tp2629
a(I35199556
I1
I1
tp2630
a(I35199556
I2
I0
tp2631
a(I35199556
I3
I0
tp2632
a(I35208832
I0
I1
tp2633
a(I35208832
I1
I0
tp2634
a(I35208997
I0
I0
tp2635
a(I35209114
I1
I1
tp2636
a(I35220031
I0
I0
tp2637
a(I35220031
I1
I0
tp2638
a(I35220031
I2
I0
tp2639
a(I35232897
I0
I1
tp2640
a(I35234823
I0
I1
tp2641
a(I35234823
I1
I0
tp2642
a(I35242055
I1
I0
tp2643
a(I35252265
I2
I0
tp2644
a(I35252265
I3
I0
tp2645
a(I35252265
I5
I0
tp2646
a(I35254886
I0
I1
tp2647
a(I35281863
I1
I0
tp2648
a(I35288428
I0
I0
tp2649
a(I35288428
I1
I1
tp2650
a(I35293171
I0
I0
tp2651
a(I35293171
I1
I0
tp2652
a(I35293171
I2
I0
tp2653
a(I35293171
I3
I0
tp2654
a(I35293171
I4
I0
tp2655
a(I35300343
I0
I1
tp2656
a(I35300343
I1
I0
tp2657
a(I35306419
I0
I1
tp2658
a(I35318700
I1
I1
tp2659
a(I35318700
I2
I1
tp2660
a(I35322452
I0
I0
tp2661
a(I35322452
I1
I0
tp2662
a(I35322452
I2
I0
tp2663
a(I35322452
I3
I0
tp2664
a(I35346425
I0
I0
tp2665
a(I35346425
I1
I0
tp2666
a(I35373082
I0
I0
tp2667
a(I35389648
I2
I1
tp2668
a(I35428388
I0
I0
tp2669
a(I35428388
I1
I0
tp2670
a(I35428388
I2
I0
tp2671
a(I35428388
I3
I0
tp2672
a(I35431172
I0
I1
tp2673
a(I35431172
I2
I1
tp2674
a(I35431172
I3
I0
tp2675
a(I35431172
I5
I0
tp2676
a(I35469417
I2
I0
tp2677
a(I35481842
I0
I1
tp2678
a(I35485675
I1
I0
tp2679
a(I35488781
I0
I1
tp2680
a(I35489107
I0
I1
tp2681
a(I35489107
I3
I0
tp2682
a(I35489107
I4
I1
tp2683
a(I35493086
I1
I0
tp2684
a(I35510590
I2
I0
tp2685
a(I35510590
I3
I1
tp2686
a(I35526501
I2
I0
tp2687
a(I35526501
I3
I1
tp2688
a(I35559958
I1
I0
tp2689
a(I35560606
I1
I0
tp2690
a(I35580801
I0
I1
tp2691
a(I35580801
I1
I1
tp2692
a(I35580801
I2
I0
tp2693
a(I35595836
I0
I1
tp2694
a(I35596269
I0
I1
tp2695
a(I35596269
I1
I0
tp2696
a(I35596269
I2
I0
tp2697
a(I35608326
I1
I1
tp2698
a(I35609991
I0
I1
tp2699
a(I35609991
I1
I1
tp2700
a(I35609991
I2
I1
tp2701
a(I35611992
I1
I0
tp2702
a(I35619038
I0
I1
tp2703
a(I35619038
I1
I0
tp2704
a(I35619038
I4
I0
tp2705
a(I35631192
I0
I0
tp2706
a(I35633421
I2
I0
tp2707
a(I35656186
I0
I0
tp2708
a(I35656186
I1
I0
tp2709
a(I35656186
I2
I0
tp2710
a(I35656186
I3
I0
tp2711
a(I35664103
I1
I0
tp2712
a(I35667931
I0
I1
tp2713
a(I35667931
I1
I1
tp2714
a(I35668472
I1
I1
tp2715
a(I35678083
I0
I1
tp2716
a(I35707475
I1
I0
tp2717
a(I35720234
I0
I1
tp2718
a(I35720330
I1
I0
tp2719
a(I35720330
I3
I0
tp2720
a(I35734026
I1
I0
tp2721
a(I35734026
I3
I0
tp2722
a(I35774261
I1
I0
tp2723
a(I35774261
I2
I0
tp2724
a(I35774261
I3
I0
tp2725
a(I35775207
I0
I1
tp2726
a(I35781083
I0
I1
tp2727
a(I35781083
I2
I1
tp2728
a(I35787294
I1
I0
tp2729
a(I35787294
I2
I0
tp2730
a(I35805891
I1
I1
tp2731
a(I35805891
I2
I1
tp2732
a(I35840403
I0
I1
tp2733
a(I35840403
I1
I1
tp2734
a(I35867650
I0
I1
tp2735
a(I35890697
I1
I0
tp2736
a(I35913509
I1
I0
tp2737
a(I35952815
I0
I1
tp2738
a(I35952815
I1
I0
tp2739
a(I35952815
I2
I0
tp2740
a(I35952815
I4
I0
tp2741
a(I35952815
I5
I0
tp2742
a(I35962295
I1
I1
tp2743
a(I35966940
I0
I1
tp2744
a(I35966940
I1
I0
tp2745
a(I36017497
I0
I1
tp2746
a(I36017497
I1
I0
tp2747
a(I36041797
I0
I1
tp2748
a(I36041797
I1
I1
tp2749
a(I36050713
I1
I0
tp2750
a(I36061608
I1
I1
tp2751
a(I36066726
I1
I0
tp2752
a(I36071592
I0
I1
tp2753
a(I36071592
I2
I0
tp2754
a(I36086075
I0
I0
tp2755
a(I36144303
I0
I1
tp2756
a(I36149707
I1
I0
tp2757
a(I36165854
I1
I0
tp2758
a(I36170581
I1
I0
tp2759
a(I36186624
I1
I1
tp2760
a(I36226959
I0
I1
tp2761
a(I36226959
I1
I1
tp2762
a(I36241474
I0
I1
tp2763
a(I36241474
I1
I1
tp2764
a(I36242061
I0
I1
tp2765
a(I36242061
I1
I0
tp2766
a(I36242061
I2
I0
tp2767
a(I36242061
I3
I1
tp2768
a(I36242061
I4
I0
tp2769
a(I36282772
I1
I1
tp2770
a(I36282772
I2
I1
tp2771
a(I36336637
I1
I1
tp2772
a(I36344619
I2
I0
tp2773
a(I36364188
I0
I1
tp2774
a(I36364512
I0
I1
tp2775
a(I36364512
I2
I1
tp2776
a(I36364512
I3
I0
tp2777
a(I36408096
I0
I1
tp2778
a(I36408096
I1
I0
tp2779
a(I36409213
I1
I0
tp2780
a(I36436065
I0
I1
tp2781
a(I36436953
I2
I1
tp2782
a(I36445193
I0
I1
tp2783
a(I36445193
I1
I0
tp2784
a(I36458482
I1
I1
tp2785
a(I36459148
I0
I0
tp2786
a(I36459148
I1
I0
tp2787
a(I36479374
I0
I1
tp2788
a(I36495903
I0
I1
tp2789
a(I36495903
I1
I1
tp2790
a(I36524627
I0
I1
tp2791
a(I36524627
I1
I0
tp2792
a(I36549666
I0
I1
tp2793
a(I36550795
I0
I0
tp2794
a(I36550795
I1
I0
tp2795
a(I36550795
I3
I0
tp2796
a(I36554940
I1
I1
tp2797
a(I36558005
I1
I0
tp2798
a(I36559053
I0
I1
tp2799
a(I36572221
I0
I0
tp2800
a(I36572221
I1
I1
tp2801
a(I36579996
I1
I0
tp2802
a(I36579996
I2
I0
tp2803
a(I36579996
I3
I0
tp2804
a(I36579996
I4
I0
tp2805
a(I36579996
I5
I0
tp2806
a(I36579996
I6
I0
tp2807
a(I36597386
I1
I1
tp2808
a(I36633059
I1
I1
tp2809
a(I36672440
I0
I1
tp2810
a(I36672440
I2
I0
tp2811
a(I36719792
I0
I1
tp2812
a(I36731365
I0
I1
tp2813
a(I36731365
I2
I1
tp2814
a(I36753799
I0
I1
tp2815
a(I36765952
I1
I1
tp2816
a(I36779891
I0
I1
tp2817
a(I36783166
I0
I0
tp2818
a(I36783166
I1
I0
tp2819
a(I36785204
I0
I1
tp2820
a(I36785204
I1
I1
tp2821
a(I36794619
I0
I1
tp2822
a(I36794619
I1
I0
tp2823
a(I36798227
I3
I0
tp2824
a(I36799190
I0
I1
tp2825
a(I36799190
I2
I0
tp2826
a(I36799190
I4
I0
tp2827
a(I36804141
I2
I0
tp2828
a(I36804586
I0
I0
tp2829
a(I36806340
I0
I1
tp2830
a(I36806340
I1
I0
tp2831
a(I36806340
I2
I0
tp2832
a(I36835793
I0
I0
tp2833
a(I36835793
I1
I0
tp2834
a(I36835793
I3
I0
tp2835
a(I36835793
I4
I0
tp2836
a(I36845683
I0
I1
tp2837
a(I36849151
I0
I1
tp2838
a(I36921573
I0
I0
tp2839
a(I36921573
I2
I0
tp2840
a(I36923865
I0
I0
tp2841
a(I36923865
I1
I0
tp2842
a(I36923865
I2
I0
tp2843
a(I36928577
I1
I0
tp2844
a(I36935617
I2
I0
tp2845
a(I36935617
I3
I0
tp2846
a(I36935617
I5
I1
tp2847
a(I36939122
I1
I1
tp2848
a(I36949277
I0
I1
tp2849
a(I36949277
I2
I1
tp2850
a(I36949277
I4
I0
tp2851
a(I36949277
I5
I0
tp2852
a(I36949277
I6
I0
tp2853
a(I36950503
I0
I1
tp2854
a(I36950503
I1
I0
tp2855
a(I36967883
I0
I0
tp2856
a(I36967883
I1
I0
tp2857
a(I36971758
I1
I0
tp2858
a(I36974140
I0
I0
tp2859
a(I36974140
I2
I0
tp2860
a(I36988306
I0
I0
tp2861
a(I36988306
I2
I0
tp2862
a(I36988306
I3
I0
tp2863
a(I37018019
I0
I1
tp2864
a(I37018019
I2
I0
tp2865
a(I37048689
I1
I0
tp2866
a(I37048689
I2
I0
tp2867
a(I37079175
I2
I0
tp2868
a(I37083117
I0
I0
tp2869
a(I37088428
I0
I1
tp2870
a(I37091273
I0
I0
tp2871
a(I37106934
I0
I1
tp2872
a(I37106934
I1
I0
tp2873
a(I37113173
I0
I1
tp2874
a(I37113173
I1
I0
tp2875
a(I37116967
I0
I0
tp2876
a(I37116967
I1
I0
tp2877
a(I37119071
I0
I0
tp2878
a(I37119071
I2
I0
tp2879
a(I37119314
I0
I1
tp2880
a(I37119314
I1
I0
tp2881
a(I37122210
I1
I0
tp2882
a(I37128072
I0
I1
tp2883
a(I37136697
I1
I1
tp2884
a(I37154201
I2
I1
tp2885
a(I37177688
I0
I1
tp2886
a(I37212307
I0
I1
tp2887
a(I37212307
I1
I0
tp2888
a(I37219219
I0
I1
tp2889
a(I37219219
I1
I1
tp2890
a(I37232279
I0
I1
tp2891
a(I37246418
I1
I1
tp2892
a(I37256540
I0
I1
tp2893
a(I37258152
I0
I1
tp2894
a(I37258152
I1
I0
tp2895
a(I37262062
I0
I1
tp2896
a(I37340568
I0
I1
tp2897
a(I37340568
I1
I0
tp2898
a(I37348050
I0
I1
tp2899
a(I37348050
I1
I0
tp2900
a(I37365033
I0
I1
tp2901
a(I37374947
I1
I0
tp2902
a(I37397296
I0
I1
tp2903
a(I37397296
I2
I1
tp2904
a(I37397296
I3
I0
tp2905
a(I37399461
I0
I1
tp2906
a(I37417157
I0
I0
tp2907
a(I37417157
I2
I0
tp2908
a(I37423445
I0
I1
tp2909
a(I37425477
I0
I0
tp2910
a(I37425477
I2
I0
tp2911
a(I37425477
I3
I0
tp2912
a(I37444512
I0
I1
tp2913
a(I37444512
I1
I1
tp2914
a(I37482313
I1
I0
tp2915
a(I37482313
I2
I0
tp2916
a(I37482313
I3
I0
tp2917
a(I37482313
I4
I0
tp2918
a(I37482313
I5
I0
tp2919
a(I37492239
I0
I1
tp2920
a(I37501075
I0
I1
tp2921
a(I37605612
I1
I0
tp2922
a(I37659598
I0
I0
tp2923
a(I37659598
I1
I0
tp2924
a(I37659598
I2
I1
tp2925
a(I37682284
I1
I1
tp2926
a(I37685718
I1
I1
tp2927
a(I37758227
I2
I0
tp2928
a(I37758227
I3
I0
tp2929
a(I37758227
I4
I0
tp2930
a(I37760124
I1
I0
tp2931
a(I37760124
I2
I0
tp2932
a(I100210
I4
I0
tp2933
a(I121025
I0
I1
tp2934
a(I168409
I0
I1
tp2935
a(I168409
I1
I0
tp2936
a(I296499
I0
I1
tp2937
a(I324214
I0
I1
tp2938
a(I409732
I0
I1
tp2939
a(I409732
I1
I1
tp2940
a(I508657
I2
I0
tp2941
a(I519633
I1
I1
tp2942
a(I544923
I0
I0
tp2943
a(I582723
I0
I0
tp2944
a(I582723
I2
I0
tp2945
a(I582723
I3
I0
tp2946
a(I645864
I1
I0
tp2947
a(I897362
I2
I0
tp2948
a(I933612
I1
I0
tp2949
a(I973481
I0
I0
tp2950
a(I973481
I4
I0
tp2951
a(I1008038
I0
I0
tp2952
a(I1144702
I1
I0
tp2953
a(I1267314
I0
I1
tp2954
a(I1295415
I0
I1
tp2955
a(I1295415
I1
I0
tp2956
a(I1448820
I0
I0
tp2957
a(I1448820
I1
I0
tp2958
a(I1448820
I4
I1
tp2959
a(I1480655
I0
I0
tp2960
a(I1598932
I0
I1
tp2961
a(I1606436
I1
I0
tp2962
a(I1606436
I3
I0
tp2963
a(I1606436
I4
I0
tp2964
a(I1673483
I0
I1
tp2965
a(I1673483
I1
I0
tp2966
a(I1738633
I1
I1
tp2967
a(I1783251
I1
I0
tp2968
a(I1783251
I2
I0
tp2969
a(I1794346
I0
I1
tp2970
a(I1869034
I0
I1
tp2971
a(I1869034
I1
I1
tp2972
a(I1885314
I0
I1
tp2973
a(I1938894
I0
I0
tp2974
a(I1938894
I2
I0
tp2975
a(I1960516
I1
I0
tp2976
a(I2034584
I1
I0
tp2977
a(I2237624
I0
I1
tp2978
a(I2255177
I2
I0
tp2979
a(I2255177
I3
I0
tp2980
a(I2358890
I2
I0
tp2981
a(I2468334
I0
I1
tp2982
a(I2534786
I4
I0
tp2983
a(I2588364
I0
I1
tp2984
a(I2588364
I1
I0
tp2985
a(I2716894
I0
I0
tp2986
a(I2743712
I1
I0
tp2987
a(I2743712
I2
I0
tp2988
a(I2922769
I0
I0
tp2989
a(I2951701
I0
I1
tp2990
a(I3068839
I0
I1
tp2991
a(I3145246
I1
I0
tp2992
a(I3257619
I2
I0
tp2993
a(I3257619
I3
I0
tp2994
a(I3277047
I0
I1
tp2995
a(I3337512
I1
I1
tp2996
a(I3458542
I0
I0
tp2997
a(I3458542
I5
I0
tp2998
a(I3458542
I6
I0
tp2999
a(I3495524
I1
I1
tp3000
a(I3575359
I1
I0
tp3001
a(I3576512
I1
I0
tp3002
a(I3724488
I1
I0
tp3003
a(I3738269
I0
I0
tp3004
a(I3862310
I2
I1
tp3005
a(I3947313
I0
I1
tp3006
a(I3947654
I1
I1
tp3007
a(I3947654
I4
I1
tp3008
a(I3966201
I1
I1
tp3009
a(I4046986
I0
I1
tp3010
a(I4046986
I1
I0
tp3011
a(I4397859
I1
I0
tp3012
a(I4554767
I0
I1
tp3013
a(I4554767
I1
I0
tp3014
a(I4787291
I1
I1
tp3015
a(I4791080
I5
I0
tp3016
a(I4867037
I1
I0
tp3017
a(I4868900
I3
I0
tp3018
a(I4976964
I0
I1
tp3019
a(I5051795
I0
I1
tp3020
a(I5185944
I1
I1
tp3021
a(I5276837
I4
I1
tp3022
a(I5300387
I0
I1
tp3023
a(I5321466
I0
I1
tp3024
a(I5332701
I3
I1
tp3025
a(I5447428
I0
I0
tp3026
a(I5470210
I0
I0
tp3027
a(I5701962
I0
I1
tp3028
a(I5701962
I1
I0
tp3029
a(I5761617
I1
I0
tp3030
a(I5761617
I5
I0
tp3031
a(I5808970
I0
I1
tp3032
a(I5825921
I0
I1
tp3033
a(I5825921
I1
I1
tp3034
a(I5873969
I2
I0
tp3035
a(I6029912
I0
I0
tp3036
a(I6029912
I1
I1
tp3037
a(I6071784
I1
I0
tp3038
a(I6237378
I1
I0
tp3039
a(I6253617
I1
I0
tp3040
a(I6290105
I0
I0
tp3041
a(I6444825
I0
I0
tp3042
a(I6444825
I1
I1
tp3043
a(I6687619
I1
I1
tp3044
a(I6819640
I1
I0
tp3045
a(I6852394
I0
I1
tp3046
a(I6941965
I0
I1
tp3047
a(I7050562
I1
I1
tp3048
a(I7096090
I1
I0
tp3049
a(I7096090
I3
I0
tp3050
a(I7172290
I0
I0
tp3051
a(I7407934
I0
I1
tp3052
a(I7700545
I1
I1
tp3053
a(I7734028
I0
I1
tp3054
a(I7821265
I1
I0
tp3055
a(I7835030
I0
I0
tp3056
a(I7918240
I0
I0
tp3057
a(I7927670
I1
I0
tp3058
a(I7933596
I2
I0
tp3059
a(I7933596
I6
I0
tp3060
a(I7950124
I0
I1
tp3061
a(I7950124
I1
I1
tp3062
a(I8019287
I0
I1
tp3063
a(I8019287
I1
I0
tp3064
a(I8072755
I1
I0
tp3065
a(I8072755
I2
I0
tp3066
a(I8302519
I0
I1
tp3067
a(I8329204
I0
I0
tp3068
a(I8345190
I0
I0
tp3069
a(I8355262
I0
I0
tp3070
a(I8419817
I0
I1
tp3071
a(I8419817
I2
I1
tp3072
a(I8605189
I0
I0
tp3073
a(I8605189
I1
I0
tp3074
a(I8652136
I1
I1
tp3075
a(I8702772
I0
I1
tp3076
a(I8714744
I1
I0
tp3077
a(I8780912
I0
I0
tp3078
a(I8780912
I2
I0
tp3079
a(I8780912
I7
I0
tp3080
a(I8916209
I0
I1
tp3081
a(I8948166
I0
I1
tp3082
a(I8948773
I0
I0
tp3083
a(I8950809
I0
I1
tp3084
a(I9151104
I0
I1
tp3085
a(I9252871
I1
I0
tp3086
a(I9288169
I1
I0
tp3087
a(I9416934
I1
I1
tp3088
a(I9465236
I0
I0
tp3089
a(I9465236
I2
I0
tp3090
a(I9542738
I1
I1
tp3091
a(I9575384
I3
I0
tp3092
a(I9630668
I2
I0
tp3093
a(I9668867
I1
I0
tp3094
a(I9670866
I1
I0
tp3095
a(I10014572
I0
I0
tp3096
a(I10040037
I1
I0
tp3097
a(I10040037
I4
I0
tp3098
a(I10099326
I1
I1
tp3099
a(I10099710
I0
I0
tp3100
a(I10099710
I1
I0
tp3101
a(I10108368
I2
I0
tp3102
a(I10108368
I5
I0
tp3103
a(I10108368
I6
I0
tp3104
a(I10108368
I7
I0
tp3105
a(I10126668
I0
I0
tp3106
a(I10126668
I5
I0
tp3107
a(I10211546
I0
I1
tp3108
a(I10263217
I1
I1
tp3109
a(I10282693
I1
I0
tp3110
a(I10437805
I0
I1
tp3111
a(I10602071
I1
I0
tp3112
a(I10683659
I0
I1
tp3113
a(I10741346
I0
I1
tp3114
a(I10741346
I2
I0
tp3115
a(I10829302
I0
I0
tp3116
a(I10889564
I0
I0
tp3117
a(I10889564
I2
I0
tp3118
a(I10963952
I3
I0
tp3119
a(I11052920
I2
I1
tp3120
a(I11066400
I1
I1
tp3121
a(I11140628
I1
I0
tp3122
a(I11179879
I0
I1
tp3123
a(I11179879
I1
I0
tp3124
a(I11239815
I1
I0
tp3125
a(I11265670
I0
I1
tp3126
a(I11314980
I0
I1
tp3127
a(I11345160
I1
I0
tp3128
a(I11488877
I1
I1
tp3129
a(I11514277
I1
I0
tp3130
a(I11576779
I1
I0
tp3131
a(I11623769
I1
I1
tp3132
a(I11649577
I1
I1
tp3133
a(I11668603
I2
I0
tp3134
a(I11668603
I4
I0
tp3135
a(I11691679
I0
I0
tp3136
a(I11691679
I3
I0
tp3137
a(I11827100
I3
I1
tp3138
a(I11902626
I1
I0
tp3139
a(I11943980
I0
I1
tp3140
a(I11968976
I1
I0
tp3141
a(I12014704
I0
I0
tp3142
a(I12059634
I1
I1
tp3143
a(I12081704
I6
I1
tp3144
a(I12151674
I1
I0
tp3145
a(I12227084
I1
I0
tp3146
a(I12413317
I1
I0
tp3147
a(I12501761
I0
I0
tp3148
a(I12504976
I1
I0
tp3149
a(I12573992
I0
I0
tp3150
a(I12576313
I0
I0
tp3151
a(I12576313
I1
I0
tp3152
a(I12713743
I1
I0
tp3153
a(I12785573
I0
I0
tp3154
a(I12972595
I0
I1
tp3155
a(I13097764
I0
I1
tp3156
a(I13097764
I2
I1
tp3157
a(I13208212
I0
I1
tp3158
a(I13276796
I0
I1
tp3159
a(I13276796
I1
I1
tp3160
a(I13279399
I0
I0
tp3161
a(I13374028
I1
I0
tp3162
a(I13562613
I1
I0
tp3163
a(I13584299
I0
I1
tp3164
a(I13612437
I1
I1
tp3165
a(I13695181
I0
I1
tp3166
a(I13728878
I0
I1
tp3167
a(I13839905
I0
I1
tp3168
a(I13882808
I2
I0
tp3169
a(I13920235
I0
I1
tp3170
a(I13920235
I1
I1
tp3171
a(I13953964
I1
I0
tp3172
a(I14001382
I1
I0
tp3173
a(I14014292
I0
I1
tp3174
a(I14076207
I1
I0
tp3175
a(I14144315
I0
I0
tp3176
a(I14144315
I1
I1
tp3177
a(I14154851
I0
I1
tp3178
a(I14154851
I1
I0
tp3179
a(I14154851
I3
I1
tp3180
a(I14154851
I4
I1
tp3181
a(I14211597
I0
I1
tp3182
a(I14258317
I3
I0
tp3183
a(I14258317
I4
I1
tp3184
a(I14366713
I0
I1
tp3185
a(I14436970
I1
I0
tp3186
a(I14436970
I3
I0
tp3187
a(I14462993
I1
I0
tp3188
a(I14494101
I1
I1
tp3189
a(I14555771
I0
I0
tp3190
a(I14572495
I0
I1
tp3191
a(I14582852
I0
I1
tp3192
a(I14601544
I5
I0
tp3193
a(I14622698
I2
I0
tp3194
a(I14677341
I0
I0
tp3195
a(I14677341
I1
I0
tp3196
a(I14686212
I2
I0
tp3197
a(I14720912
I3
I1
tp3198
a(I14720912
I5
I0
tp3199
a(I14815365
I1
I1
tp3200
a(I14940338
I0
I1
tp3201
a(I14940338
I1
I1
tp3202
a(I14940338
I3
I0
tp3203
a(I15009180
I1
I1
tp3204
a(I15104415
I2
I1
tp3205
a(I15114761
I0
I0
tp3206
a(I15114761
I2
I0
tp3207
a(I15133537
I1
I0
tp3208
a(I15211991
I0
I0
tp3209
a(I15340713
I1
I0
tp3210
a(I15353972
I1
I0
tp3211
a(I15418751
I1
I0
tp3212
a(I15418751
I2
I0
tp3213
a(I15425455
I2
I0
tp3214
a(I15432775
I1
I1
tp3215
a(I15462548
I1
I0
tp3216
a(I15508970
I1
I1
tp3217
a(I15510367
I0
I0
tp3218
a(I15510367
I3
I0
tp3219
a(I15510367
I4
I0
tp3220
a(I15516876
I1
I1
tp3221
a(I15580917
I1
I1
tp3222
a(I15620039
I0
I1
tp3223
a(I15635341
I1
I0
tp3224
a(I15649257
I3
I0
tp3225
a(I15649257
I4
I0
tp3226
a(I15668416
I0
I0
tp3227
a(I15668416
I3
I0
tp3228
a(I15702753
I2
I0
tp3229
a(I16019624
I0
I1
tp3230
a(I16056574
I1
I0
tp3231
a(I16057689
I1
I1
tp3232
a(I16107526
I1
I0
tp3233
a(I16110307
I0
I1
tp3234
a(I16142829
I1
I0
tp3235
a(I16143648
I0
I1
tp3236
a(I16257087
I0
I0
tp3237
a(I16391808
I1
I0
tp3238
a(I16421050
I1
I1
tp3239
a(I16515465
I0
I1
tp3240
a(I16595299
I1
I1
tp3241
a(I16615630
I1
I1
tp3242
a(I16689117
I2
I1
tp3243
a(I16876342
I0
I0
tp3244
a(I16876342
I1
I1
tp3245
a(I16965782
I0
I1
tp3246
a(I17023994
I1
I0
tp3247
a(I17065086
I2
I1
tp3248
a(I17077403
I0
I0
tp3249
a(I17144809
I0
I1
tp3250
a(I17167297
I1
I0
tp3251
a(I17176270
I0
I1
tp3252
a(I17176270
I1
I0
tp3253
a(I17203403
I2
I0
tp3254
a(I17243403
I1
I0
tp3255
a(I17254599
I1
I0
tp3256
a(I17260358
I1
I0
tp3257
a(I17334702
I1
I0
tp3258
a(I17374553
I2
I1
tp3259
a(I17387219
I2
I0
tp3260
a(I17471682
I2
I0
tp3261
a(I17507325
I0
I1
tp3262
a(I17534484
I1
I1
tp3263
a(I17534484
I3
I0
tp3264
a(I17555470
I1
I1
tp3265
a(I17559933
I3
I0
tp3266
a(I17598881
I1
I0
tp3267
a(I17659626
I1
I0
tp3268
a(I17687453
I0
I1
tp3269
a(I17711212
I1
I0
tp3270
a(I17778394
I1
I0
tp3271
a(I17809274
I0
I1
tp3272
a(I17910359
I2
I1
tp3273
a(I17958069
I3
I0
tp3274
a(I18024402
I1
I0
tp3275
a(I18024402
I3
I1
tp3276
a(I18040702
I0
I1
tp3277
a(I18040702
I1
I1
tp3278
a(I18049531
I1
I0
tp3279
a(I18050937
I1
I1
tp3280
a(I18062466
I0
I1
tp3281
a(I18062466
I1
I1
tp3282
a(I18082130
I1
I1
tp3283
a(I18085030
I1
I0
tp3284
a(I18086307
I1
I0
tp3285
a(I18108438
I0
I1
tp3286
a(I18111031
I1
I0
tp3287
a(I18114415
I4
I0
tp3288
a(I18141698
I1
I1
tp3289
a(I18157559
I1
I1
tp3290
a(I18244791
I0
I1
tp3291
a(I18244791
I1
I0
tp3292
a(I18281342
I0
I1
tp3293
a(I18286362
I1
I0
tp3294
a(I18289871
I1
I0
tp3295
a(I18353465
I1
I1
tp3296
a(I18474538
I2
I0
tp3297
a(I18474538
I4
I0
tp3298
a(I18497810
I1
I1
tp3299
a(I18507244
I0
I1
tp3300
a(I18535645
I0
I1
tp3301
a(I18535645
I1
I1
tp3302
a(I18580032
I0
I1
tp3303
a(I18590658
I1
I0
tp3304
a(I18619131
I0
I1
tp3305
a(I18631669
I0
I1
tp3306
a(I18631669
I1
I0
tp3307
a(I18679264
I0
I0
tp3308
a(I18689862
I1
I0
tp3309
a(I18696264
I0
I1
tp3310
a(I18706785
I1
I1
tp3311
a(I18765340
I0
I1
tp3312
a(I18772706
I1
I1
tp3313
a(I18817616
I0
I1
tp3314
a(I18854425
I0
I1
tp3315
a(I19031953
I0
I1
tp3316
a(I19199869
I2
I0
tp3317
a(I19199869
I3
I0
tp3318
a(I19209860
I1
I0
tp3319
a(I19215100
I2
I1
tp3320
a(I19288469
I1
I0
tp3321
a(I19368715
I1
I1
tp3322
a(I19431099
I0
I1
tp3323
a(I19522263
I1
I0
tp3324
a(I19534230
I2
I0
tp3325
a(I19543636
I1
I0
tp3326
a(I19618514
I0
I1
tp3327
a(I19618514
I3
I0
tp3328
a(I19641162
I0
I1
tp3329
a(I19799490
I1
I1
tp3330
a(I19830594
I0
I1
tp3331
a(I19830594
I1
I1
tp3332
a(I19844558
I1
I1
tp3333
a(I19888255
I1
I0
tp3334
a(I19917545
I0
I0
tp3335
a(I19917545
I1
I1
tp3336
a(I19923464
I1
I0
tp3337
a(I19945525
I1
I0
tp3338
a(I20052327
I1
I1
tp3339
a(I20062672
I0
I1
tp3340
a(I20063721
I1
I0
tp3341
a(I20190748
I0
I0
tp3342
a(I20212171
I0
I1
tp3343
a(I20249149
I2
I0
tp3344
a(I20385957
I0
I1
tp3345
a(I20388992
I0
I1
tp3346
a(I20524146
I0
I1
tp3347
a(I20524146
I1
I0
tp3348
a(I20524146
I2
I0
tp3349
a(I20634691
I1
I1
tp3350
a(I20661902
I0
I1
tp3351
a(I20672238
I1
I0
tp3352
a(I20672238
I2
I0
tp3353
a(I20857188
I5
I1
tp3354
a(I20974696
I0
I1
tp3355
a(I21015447
I2
I0
tp3356
a(I21053458
I0
I1
tp3357
a(I21126108
I1
I0
tp3358
a(I21126108
I2
I0
tp3359
a(I21175455
I1
I0
tp3360
a(I21195366
I0
I1
tp3361
a(I21195366
I1
I0
tp3362
a(I21217108
I0
I1
tp3363
a(I21310549
I0
I0
tp3364
a(I21329988
I0
I1
tp3365
a(I21439948
I1
I0
tp3366
a(I21439948
I4
I0
tp3367
a(I21439948
I6
I0
tp3368
a(I21500596
I1
I0
tp3369
a(I21507319
I1
I1
tp3370
a(I21515554
I1
I0
tp3371
a(I21756477
I0
I0
tp3372
a(I21833068
I1
I0
tp3373
a(I21885814
I0
I1
tp3374
a(I21905433
I1
I1
tp3375
a(I21905433
I2
I0
tp3376
a(I22042490
I0
I1
tp3377
a(I22083378
I0
I0
tp3378
a(I22118136
I0
I1
tp3379
a(I22119987
I1
I1
tp3380
a(I22122385
I0
I1
tp3381
a(I22384398
I2
I0
tp3382
a(I22404273
I0
I1
tp3383
a(I22535316
I0
I0
tp3384
a(I22535316
I2
I1
tp3385
a(I22567247
I0
I0
tp3386
a(I22567247
I1
I0
tp3387
a(I22649851
I0
I1
tp3388
a(I22693260
I1
I1
tp3389
a(I22696168
I1
I1
tp3390
a(I22727800
I0
I0
tp3391
a(I22739971
I0
I1
tp3392
a(I22775168
I2
I0
tp3393
a(I22856566
I1
I1
tp3394
a(I22912598
I1
I0
tp3395
a(I22920023
I1
I1
tp3396
a(I22920023
I2
I1
tp3397
a(I22953550
I3
I0
tp3398
a(I22959268
I0
I0
tp3399
a(I23008799
I0
I0
tp3400
a(I23008799
I1
I0
tp3401
a(I23008799
I2
I0
tp3402
a(I23025497
I1
I1
tp3403
a(I23059398
I0
I1
tp3404
a(I23059398
I2
I0
tp3405
a(I23059398
I4
I0
tp3406
a(I23114734
I0
I1
tp3407
a(I23248583
I0
I0
tp3408
a(I23312803
I1
I1
tp3409
a(I23323675
I1
I1
tp3410
a(I23368164
I1
I1
tp3411
a(I23402150
I0
I1
tp3412
a(I23429426
I0
I1
tp3413
a(I23555829
I0
I0
tp3414
a(I23555995
I0
I1
tp3415
a(I23587296
I1
I0
tp3416
a(I23613138
I2
I0
tp3417
a(I23626026
I0
I0
tp3418
a(I23642406
I2
I1
tp3419
a(I23669024
I0
I1
tp3420
a(I23677258
I0
I0
tp3421
a(I23699378
I1
I0
tp3422
a(I23833763
I0
I1
tp3423
a(I23837696
I1
I1
tp3424
a(I23923658
I1
I0
tp3425
a(I23961648
I0
I1
tp3426
a(I24018965
I0
I0
tp3427
a(I24055067
I0
I1
tp3428
a(I24084817
I3
I0
tp3429
a(I24084817
I5
I0
tp3430
a(I24103624
I0
I1
tp3431
a(I24103624
I1
I0
tp3432
a(I24103624
I2
I1
tp3433
a(I24108842
I1
I1
tp3434
a(I24145957
I0
I1
tp3435
a(I24172896
I2
I0
tp3436
a(I24216198
I1
I0
tp3437
a(I24319973
I2
I0
tp3438
a(I24406677
I1
I0
tp3439
a(I24418864
I0
I0
tp3440
a(I24427828
I0
I1
tp3441
a(I24445991
I0
I1
tp3442
a(I24458430
I0
I0
tp3443
a(I24458430
I2
I0
tp3444
a(I24495452
I0
I1
tp3445
a(I24496320
I1
I1
tp3446
a(I24518769
I0
I0
tp3447
a(I24584784
I1
I1
tp3448
a(I24593478
I1
I0
tp3449
a(I24638781
I0
I0
tp3450
a(I24746231
I0
I1
tp3451
a(I24747191
I1
I1
tp3452
a(I24747996
I0
I0
tp3453
a(I24780464
I1
I0
tp3454
a(I24780464
I2
I0
tp3455
a(I24833045
I0
I1
tp3456
a(I24900064
I1
I1
tp3457
a(I24915181
I3
I1
tp3458
a(I24928086
I1
I0
tp3459
a(I24994284
I0
I1
tp3460
a(I24994284
I2
I1
tp3461
a(I25002459
I0
I1
tp3462
a(I25030548
I0
I1
tp3463
a(I25047254
I0
I0
tp3464
a(I25068002
I0
I0
tp3465
a(I25068002
I1
I0
tp3466
a(I25100105
I0
I0
tp3467
a(I25137972
I0
I0
tp3468
a(I25244751
I1
I0
tp3469
a(I25345513
I0
I1
tp3470
a(I25345843
I2
I1
tp3471
a(I25411441
I1
I0
tp3472
a(I25411441
I2
I0
tp3473
a(I25435908
I2
I0
tp3474
a(I25467360
I0
I1
tp3475
a(I25467360
I1
I0
tp3476
a(I25467360
I2
I0
tp3477
a(I25467360
I4
I0
tp3478
a(I25493559
I2
I0
tp3479
a(I25513929
I0
I0
tp3480
a(I25513929
I1
I0
tp3481
a(I25537262
I0
I0
tp3482
a(I25690354
I0
I0
tp3483
a(I25690354
I1
I0
tp3484
a(I25705612
I1
I0
tp3485
a(I25705612
I2
I1
tp3486
a(I25713738
I0
I1
tp3487
a(I25744399
I1
I0
tp3488
a(I25765631
I1
I0
tp3489
a(I25883410
I1
I0
tp3490
a(I25946008
I0
I1
tp3491
a(I26059710
I0
I1
tp3492
a(I26179639
I0
I0
tp3493
a(I26179639
I1
I1
tp3494
a(I26238723
I1
I0
tp3495
a(I26240228
I1
I1
tp3496
a(I26277322
I0
I0
tp3497
a(I26277322
I3
I0
tp3498
a(I26277322
I5
I0
tp3499
a(I26286980
I1
I1
tp3500
a(I26430002
I0
I1
tp3501
a(I26430002
I1
I0
tp3502
a(I26430002
I2
I0
tp3503
a(I26450673
I2
I0
tp3504
a(I26487617
I0
I1
tp3505
a(I26498100
I1
I0
tp3506
a(I26499216
I0
I1
tp3507
a(I26499216
I1
I0
tp3508
a(I26552266
I0
I1
tp3509
a(I26563683
I0
I1
tp3510
a(I26683175
I1
I0
tp3511
a(I26683175
I2
I0
tp3512
a(I26787410
I2
I0
tp3513
a(I26826838
I1
I1
tp3514
a(I26830752
I2
I0
tp3515
a(I26856378
I2
I0
tp3516
a(I26871083
I2
I0
tp3517
a(I26922284
I0
I0
tp3518
a(I26922284
I3
I0
tp3519
a(I26934349
I0
I1
tp3520
a(I26983187
I3
I0
tp3521
a(I26983187
I7
I0
tp3522
a(I26983187
I12
I0
tp3523
a(I26983187
I13
I0
tp3524
a(I26983187
I14
I0
tp3525
a(I27031053
I1
I1
tp3526
a(I27054358
I0
I1
tp3527
a(I27054358
I2
I1
tp3528
a(I27103165
I1
I1
tp3529
a(I27122584
I0
I0
tp3530
a(I27139744
I1
I0
tp3531
a(I27150664
I1
I1
tp3532
a(I27216950
I1
I0
tp3533
a(I27216950
I3
I0
tp3534
a(I27255080
I1
I1
tp3535
a(I27277381
I0
I1
tp3536
a(I27419345
I0
I0
tp3537
a(I27491734
I1
I1
tp3538
a(I27573800
I0
I1
tp3539
a(I27573800
I1
I0
tp3540
a(I27670683
I1
I0
tp3541
a(I27724543
I1
I1
tp3542
a(I27743031
I1
I0
tp3543
a(I27746297
I1
I1
tp3544
a(I27827982
I0
I1
tp3545
a(I27857842
I5
I0
tp3546
a(I27857842
I7
I0
tp3547
a(I27884051
I0
I0
tp3548
a(I27887545
I1
I1
tp3549
a(I27914360
I3
I0
tp3550
a(I27925861
I1
I0
tp3551
a(I27947419
I1
I0
tp3552
a(I27947419
I4
I0
tp3553
a(I27996151
I1
I1
tp3554
a(I28016212
I0
I1
tp3555
a(I28176483
I2
I0
tp3556
a(I28199359
I1
I0
tp3557
a(I28255693
I1
I0
tp3558
a(I28267563
I1
I0
tp3559
a(I28267563
I4
I1
tp3560
a(I28306700
I1
I0
tp3561
a(I28348485
I2
I1
tp3562
a(I28348485
I4
I1
tp3563
a(I28364676
I0
I0
tp3564
a(I28416559
I1
I0
tp3565
a(I28416559
I2
I0
tp3566
a(I28416559
I5
I0
tp3567
a(I28417585
I1
I1
tp3568
a(I28418901
I0
I1
tp3569
a(I28419477
I0
I1
tp3570
a(I28461458
I2
I0
tp3571
a(I28500718
I0
I0
tp3572
a(I28606124
I0
I1
tp3573
a(I28643401
I0
I1
tp3574
a(I28643401
I1
I1
tp3575
a(I28677840
I0
I1
tp3576
a(I28687087
I0
I0
tp3577
a(I28716265
I1
I0
tp3578
a(I28720893
I0
I0
tp3579
a(I28720893
I1
I0
tp3580
a(I28767484
I0
I0
tp3581
a(I28774852
I1
I0
tp3582
a(I28795561
I1
I0
tp3583
a(I28800634
I1
I1
tp3584
a(I28812868
I2
I0
tp3585
a(I28857930
I0
I1
tp3586
a(I28857930
I3
I1
tp3587
a(I28870344
I0
I1
tp3588
a(I28870344
I1
I0
tp3589
a(I28907503
I2
I1
tp3590
a(I28928049
I1
I0
tp3591
a(I29036344
I2
I0
tp3592
a(I29041324
I0
I1
tp3593
a(I29058135
I0
I1
tp3594
a(I29058135
I1
I1
tp3595
a(I29058643
I1
I1
tp3596
a(I29114975
I0
I1
tp3597
a(I29114975
I2
I1
tp3598
a(I29153930
I1
I1
tp3599
a(I29192826
I0
I0
tp3600
a(I29238534
I0
I1
tp3601
a(I29263680
I1
I0
tp3602
a(I29309643
I0
I1
tp3603
a(I29351492
I0
I1
tp3604
a(I29395674
I0
I1
tp3605
a(I29415538
I0
I1
tp3606
a(I29451598
I0
I1
tp3607
a(I29451598
I1
I0
tp3608
a(I29481485
I1
I0
tp3609
a(I29481485
I3
I0
tp3610
a(I29484529
I0
I1
tp3611
a(I29484529
I1
I0
tp3612
a(I29497029
I1
I0
tp3613
a(I29509781
I1
I0
tp3614
a(I29514238
I1
I1
tp3615
a(I29571644
I1
I0
tp3616
a(I29703388
I1
I0
tp3617
a(I29761118
I0
I1
tp3618
a(I29950856
I1
I0
tp3619
a(I29952373
I1
I0
tp3620
a(I29998052
I1
I0
tp3621
a(I29998052
I2
I1
tp3622
a(I29998052
I6
I1
tp3623
a(I29998052
I8
I0
tp3624
a(I29998052
I14
I0
tp3625
a(I30002261
I1
I0
tp3626
a(I30068271
I0
I1
tp3627
a(I30071618
I0
I1
tp3628
a(I30076583
I1
I0
tp3629
a(I30133281
I1
I0
tp3630
a(I30156357
I2
I0
tp3631
a(I30180241
I0
I1
tp3632
a(I30180241
I1
I1
tp3633
a(I30185056
I0
I0
tp3634
a(I30185056
I1
I0
tp3635
a(I30209723
I0
I0
tp3636
a(I30209723
I2
I1
tp3637
a(I30214489
I2
I0
tp3638
a(I30242208
I1
I0
tp3639
a(I30242208
I8
I0
tp3640
a(I30242208
I10
I0
tp3641
a(I30242208
I12
I0
tp3642
a(I30296726
I0
I0
tp3643
a(I30338961
I0
I0
tp3644
a(I30365563
I1
I1
tp3645
a(I30397315
I1
I0
tp3646
a(I30397315
I2
I1
tp3647
a(I30406324
I0
I0
tp3648
a(I30406324
I2
I1
tp3649
a(I30475558
I0
I1
tp3650
a(I30475558
I1
I0
tp3651
a(I30507442
I3
I0
tp3652
a(I30559807
I1
I1
tp3653
a(I30578068
I3
I0
tp3654
a(I30602088
I2
I0
tp3655
a(I30620595
I1
I0
tp3656
a(I30641097
I0
I1
tp3657
a(I30641097
I1
I0
tp3658
a(I30667382
I0
I1
tp3659
a(I30701329
I3
I1
tp3660
a(I30740326
I1
I0
tp3661
a(I30782867
I0
I1
tp3662
a(I30782867
I1
I0
tp3663
a(I30784217
I1
I0
tp3664
a(I30793198
I0
I1
tp3665
a(I30909414
I4
I0
tp3666
a(I30909414
I6
I0
tp3667
a(I30936020
I1
I1
tp3668
a(I30960440
I0
I0
tp3669
a(I30960440
I4
I0
tp3670
a(I30992225
I0
I1
tp3671
a(I31014848
I1
I1
tp3672
a(I31137183
I1
I0
tp3673
a(I31137766
I2
I0
tp3674
a(I31146021
I1
I0
tp3675
a(I31193012
I0
I0
tp3676
a(I31193239
I1
I0
tp3677
a(I31202918
I1
I0
tp3678
a(I31230972
I0
I1
tp3679
a(I31247678
I1
I0
tp3680
a(I31349527
I1
I1
tp3681
a(I31349898
I1
I0
tp3682
a(I31367608
I2
I0
tp3683
a(I31393692
I1
I0
tp3684
a(I31393692
I2
I0
tp3685
a(I31393692
I3
I0
tp3686
a(I31394463
I1
I1
tp3687
a(I31440326
I0
I1
tp3688
a(I31456902
I1
I0
tp3689
a(I31462265
I1
I0
tp3690
a(I31562534
I1
I0
tp3691
a(I31562641
I1
I1
tp3692
a(I31572425
I0
I1
tp3693
a(I31611288
I1
I1
tp3694
a(I31617530
I1
I1
tp3695
a(I31630753
I0
I1
tp3696
a(I31649843
I2
I0
tp3697
a(I31650674
I1
I0
tp3698
a(I31663775
I0
I1
tp3699
a(I31704411
I1
I0
tp3700
a(I31704411
I2
I0
tp3701
a(I31729552
I0
I0
tp3702
a(I31842707
I0
I1
tp3703
a(I31869890
I1
I0
tp3704
a(I31912253
I0
I0
tp3705
a(I31912253
I1
I0
tp3706
a(I32077660
I0
I1
tp3707
a(I32161369
I2
I0
tp3708
a(I32214596
I1
I0
tp3709
a(I32231491
I0
I1
tp3710
a(I32298978
I1
I0
tp3711
a(I32308382
I2
I0
tp3712
a(I32308382
I3
I0
tp3713
a(I32314712
I0
I1
tp3714
a(I32314712
I1
I1
tp3715
a(I32358269
I1
I0
tp3716
a(I32379895
I3
I1
tp3717
a(I32424555
I2
I0
tp3718
a(I32471239
I1
I0
tp3719
a(I32497161
I1
I1
tp3720
a(I32537153
I2
I0
tp3721
a(I32625593
I0
I0
tp3722
a(I32652039
I0
I1
tp3723
a(I32652039
I1
I0
tp3724
a(I32652039
I2
I1
tp3725
a(I32665833
I0
I1
tp3726
a(I32665833
I1
I1
tp3727
a(I32679481
I0
I1
tp3728
a(I32896987
I2
I0
tp3729
a(I32896987
I3
I0
tp3730
a(I32900442
I1
I1
tp3731
a(I32902648
I0
I0
tp3732
a(I32921049
I4
I0
tp3733
a(I32935585
I0
I0
tp3734
a(I32946908
I0
I0
tp3735
a(I32953680
I1
I1
tp3736
a(I32966627
I2
I1
tp3737
a(I33010861
I0
I1
tp3738
a(I33042988
I0
I0
tp3739
a(I33042988
I1
I0
tp3740
a(I33062288
I0
I1
tp3741
a(I33103802
I0
I0
tp3742
a(I33140945
I1
I0
tp3743
a(I33144460
I2
I0
tp3744
a(I33223682
I1
I1
tp3745
a(I33252350
I0
I1
tp3746
a(I33270413
I1
I0
tp3747
a(I33288420
I1
I1
tp3748
a(I33304356
I0
I1
tp3749
a(I33341000
I1
I0
tp3750
a(I33371558
I0
I1
tp3751
a(I33385238
I2
I1
tp3752
a(I33402355
I1
I1
tp3753
a(I33402355
I2
I1
tp3754
a(I33402355
I5
I0
tp3755
a(I33554230
I1
I0
tp3756
a(I33578676
I1
I1
tp3757
a(I33607716
I4
I0
tp3758
a(I33613596
I3
I0
tp3759
a(I33705180
I1
I1
tp3760
a(I33706780
I0
I0
tp3761
a(I33729888
I1
I0
tp3762
a(I33733189
I0
I0
tp3763
a(I33800210
I0
I1
tp3764
a(I33869234
I2
I1
tp3765
a(I33907941
I1
I0
tp3766
a(I33928554
I3
I0
tp3767
a(I33928554
I4
I0
tp3768
a(I33978569
I1
I1
tp3769
a(I34008175
I0
I0
tp3770
a(I34014527
I1
I1
tp3771
a(I34066053
I0
I0
tp3772
a(I34069642
I0
I1
tp3773
a(I34082065
I0
I1
tp3774
a(I34114554
I3
I0
tp3775
a(I34117408
I1
I0
tp3776
a(I34137572
I1
I0
tp3777
a(I34141855
I2
I1
tp3778
a(I34155132
I1
I0
tp3779
a(I34168264
I0
I1
tp3780
a(I34244726
I2
I0
tp3781
a(I34260522
I1
I0
tp3782
a(I34286165
I1
I0
tp3783
a(I34374393
I0
I0
tp3784
a(I34419926
I0
I1
tp3785
a(I34439723
I1
I0
tp3786
a(I34452644
I2
I0
tp3787
a(I34456661
I1
I0
tp3788
a(I34463966
I2
I0
tp3789
a(I34478011
I7
I0
tp3790
a(I34478011
I8
I0
tp3791
a(I34478011
I9
I0
tp3792
a(I34505283
I1
I1
tp3793
a(I34512219
I0
I0
tp3794
a(I34546949
I1
I0
tp3795
a(I34563454
I1
I0
tp3796
a(I34569966
I1
I1
tp3797
a(I34576433
I2
I1
tp3798
a(I34600056
I0
I0
tp3799
a(I34601770
I0
I1
tp3800
a(I34687883
I2
I0
tp3801
a(I34715227
I0
I1
tp3802
a(I34773317
I2
I0
tp3803
a(I34773317
I3
I0
tp3804
a(I34906231
I0
I1
tp3805
a(I34906231
I2
I1
tp3806
a(I34910228
I1
I0
tp3807
a(I34910228
I3
I0
tp3808
a(I34914655
I0
I0
tp3809
a(I34929717
I0
I0
tp3810
a(I34930630
I0
I1
tp3811
a(I34930630
I2
I1
tp3812
a(I35011168
I1
I1
tp3813
a(I35025400
I0
I1
tp3814
a(I35115138
I1
I0
tp3815
a(I35119291
I1
I0
tp3816
a(I35159791
I0
I1
tp3817
a(I35208997
I1
I0
tp3818
a(I35209114
I2
I0
tp3819
a(I35242055
I0
I1
tp3820
a(I35252265
I0
I1
tp3821
a(I35252265
I1
I0
tp3822
a(I35252265
I4
I0
tp3823
a(I35261899
I1
I0
tp3824
a(I35306419
I2
I1
tp3825
a(I35344237
I0
I0
tp3826
a(I35373082
I2
I0
tp3827
a(I35373082
I3
I0
tp3828
a(I35431172
I1
I0
tp3829
a(I35432378
I1
I0
tp3830
a(I35469417
I1
I1
tp3831
a(I35510590
I1
I0
tp3832
a(I35526501
I1
I0
tp3833
a(I35559958
I0
I1
tp3834
a(I35560606
I0
I1
tp3835
a(I35561635
I1
I0
tp3836
a(I35596269
I3
I0
tp3837
a(I35596269
I4
I0
tp3838
a(I35611992
I0
I1
tp3839
a(I35619038
I3
I0
tp3840
a(I35631192
I1
I0
tp3841
a(I35633421
I0
I1
tp3842
a(I35636806
I0
I0
tp3843
a(I35636806
I1
I0
tp3844
a(I35678083
I1
I1
tp3845
a(I35707475
I0
I1
tp3846
a(I35775207
I1
I0
tp3847
a(I35805891
I0
I1
tp3848
a(I35867650
I1
I1
tp3849
a(I35913509
I0
I0
tp3850
a(I35952815
I3
I0
tp3851
a(I36050713
I0
I1
tp3852
a(I36061608
I0
I1
tp3853
a(I36066726
I0
I1
tp3854
a(I36144303
I1
I1
tp3855
a(I36149707
I0
I0
tp3856
a(I36165854
I0
I1
tp3857
a(I36193225
I0
I1
tp3858
a(I36241474
I2
I0
tp3859
a(I36344619
I0
I1
tp3860
a(I36364188
I1
I1
tp3861
a(I36364512
I1
I0
tp3862
a(I36436065
I1
I1
tp3863
a(I36458482
I0
I1
tp3864
a(I36464357
I1
I0
tp3865
a(I36479374
I1
I1
tp3866
a(I36549666
I1
I1
tp3867
a(I36558005
I0
I1
tp3868
a(I36572221
I2
I0
tp3869
a(I36672440
I1
I0
tp3870
a(I36709837
I1
I0
tp3871
a(I36719792
I1
I0
tp3872
a(I36744627
I0
I1
tp3873
a(I36765952
I0
I1
tp3874
a(I36798227
I1
I0
tp3875
a(I36798227
I2
I1
tp3876
a(I36799190
I1
I0
tp3877
a(I36806340
I3
I0
tp3878
a(I36845683
I2
I0
tp3879
a(I36849151
I3
I0
tp3880
a(I36928577
I0
I1
tp3881
a(I36939122
I0
I1
tp3882
a(I36949277
I1
I0
tp3883
a(I36967883
I2
I0
tp3884
a(I36971201
I0
I1
tp3885
a(I36971758
I0
I1
tp3886
a(I37018019
I1
I0
tp3887
a(I37042635
I0
I1
tp3888
a(I37042635
I1
I0
tp3889
a(I37048689
I0
I0
tp3890
a(I37079175
I0
I0
tp3891
a(I37079175
I4
I0
tp3892
a(I37088428
I1
I0
tp3893
a(I37128072
I1
I1
tp3894
a(I37246418
I0
I1
tp3895
a(I37262062
I1
I1
tp3896
a(I37299064
I1
I1
tp3897
a(I37365033
I1
I0
tp3898
a(I37374947
I0
I1
tp3899
a(I37417157
I1
I0
tp3900
a(I37417157
I3
I0
tp3901
a(I37444512
I2
I0
tp3902
a(I37501075
I1
I0
tp3903
a(I37501075
I2
I0
tp3904
a(I37501075
I3
I0
tp3905
a(I37546552
I0
I0
tp3906
a(I37685718
I0
I1
tp3907
a(I37758227
I0
I0
tp3908
a(I100210
I0
I1
tp3909
a(I187273
I2
I0
tp3910
a(I296055
I1
I0
tp3911
a(I508657
I0
I1
tp3912
a(I508657
I3
I1
tp3913
a(I519633
I0
I1
tp3914
a(I555344
I2
I0
tp3915
a(I765305
I1
I1
tp3916
a(I870652
I1
I1
tp3917
a(I899138
I1
I0
tp3918
a(I933612
I0
I0
tp3919
a(I933612
I2
I0
tp3920
a(I956820
I1
I0
tp3921
a(I973481
I1
I0
tp3922
a(I1060193
I0
I1
tp3923
a(I1144702
I0
I0
tp3924
a(I1175208
I1
I0
tp3925
a(I1175208
I2
I1
tp3926
a(I1175208
I3
I0
tp3927
a(I1210099
I0
I0
tp3928
a(I1210099
I1
I0
tp3929
a(I1267314
I1
I1
tp3930
a(I1305532
I2
I0
tp3931
a(I1389180
I0
I1
tp3932
a(I1389180
I1
I1
tp3933
a(I1389180
I2
I1
tp3934
a(I1480655
I1
I1
tp3935
a(I1527689
I2
I1
tp3936
a(I1598932
I1
I1
tp3937
a(I1767565
I3
I0
tp3938
a(I1783251
I4
I0
tp3939
a(I1794346
I1
I1
tp3940
a(I1885314
I1
I0
tp3941
a(I2005234
I1
I0
tp3942
a(I2005759
I2
I0
tp3943
a(I2082387
I1
I0
tp3944
a(I2148119
I1
I0
tp3945
a(I2148119
I2
I0
tp3946
a(I2170228
I0
I1
tp3947
a(I2192658
I0
I1
tp3948
a(I2255177
I4
I1
tp3949
a(I2358890
I1
I0
tp3950
a(I2454494
I1
I1
tp3951
a(I2468334
I1
I1
tp3952
a(I2534786
I3
I0
tp3953
a(I2575672
I1
I1
tp3954
a(I2654689
I2
I0
tp3955
a(I2658026
I0
I1
tp3956
a(I2716894
I1
I0
tp3957
a(I2743712
I3
I0
tp3958
a(I2939050
I1
I0
tp3959
a(I2939050
I2
I0
tp3960
a(I2983959
I2
I0
tp3961
a(I3065624
I1
I0
tp3962
a(I3065624
I2
I0
tp3963
a(I3065624
I3
I1
tp3964
a(I3102098
I3
I0
tp3965
a(I3121979
I1
I1
tp3966
a(I3257619
I4
I0
tp3967
a(I3306189
I0
I1
tp3968
a(I3306189
I1
I1
tp3969
a(I3337512
I0
I1
tp3970
a(I3337512
I2
I0
tp3971
a(I3387691
I0
I1
tp3972
a(I3637419
I2
I0
tp3973
a(I3637419
I3
I0
tp3974
a(I3708418
I1
I1
tp3975
a(I3724488
I0
I0
tp3976
a(I3738269
I2
I0
tp3977
a(I3748356
I1
I0
tp3978
a(I3862310
I3
I0
tp3979
a(I3862310
I4
I1
tp3980
a(I3984539
I0
I1
tp3981
a(I3986345
I0
I1
tp3982
a(I3986345
I2
I0
tp3983
a(I4006970
I0
I1
tp3984
a(I4006970
I1
I0
tp3985
a(I4112561
I1
I0
tp3986
a(I4339273
I0
I1
tp3987
a(I4339736
I0
I1
tp3988
a(I4397859
I0
I1
tp3989
a(I4402383
I1
I1
tp3990
a(I4416013
I1
I0
tp3991
a(I4416013
I2
I0
tp3992
a(I4484985
I1
I0
tp3993
a(I4534486
I3
I0
tp3994
a(I4631601
I0
I1
tp3995
a(I4702518
I1
I1
tp3996
a(I4791080
I1
I0
tp3997
a(I4808753
I0
I1
tp3998
a(I4868900
I1
I0
tp3999
a(I4910789
I1
I0
tp4000
a(I5073624
I1
I1
tp4001
a(I5162130
I1
I0
tp4002
a(I5198116
I1
I0
tp4003
a(I5222333
I1
I0
tp4004
a(I5276837
I0
I1
tp4005
a(I5276837
I2
I0
tp4006
a(I5321466
I1
I0
tp4007
a(I5332701
I1
I1
tp4008
a(I5332701
I4
I1
tp4009
a(I5470210
I1
I0
tp4010
a(I5478351
I1
I0
tp4011
a(I5530857
I1
I0
tp4012
a(I5532498
I0
I1
tp4013
a(I5629242
I0
I1
tp4014
a(I5678950
I0
I1
tp4015
a(I5722767
I0
I1
tp4016
a(I5726827
I1
I0
tp4017
a(I5761617
I4
I0
tp4018
a(I5771039
I0
I0
tp4019
a(I5947137
I1
I1
tp4020
a(I5947137
I3
I1
tp4021
a(I5995478
I0
I1
tp4022
a(I5999241
I0
I1
tp4023
a(I6205592
I1
I0
tp4024
a(I6220490
I0
I1
tp4025
a(I6237378
I0
I1
tp4026
a(I6316726
I2
I0
tp4027
a(I6367051
I0
I1
tp4028
a(I6611563
I0
I1
tp4029
a(I6669828
I0
I0
tp4030
a(I6727491
I0
I1
tp4031
a(I6762695
I2
I1
tp4032
a(I6941965
I1
I0
tp4033
a(I6976372
I0
I1
tp4034
a(I7050562
I0
I1
tp4035
a(I7096090
I2
I0
tp4036
a(I7302316
I1
I1
tp4037
a(I7463941
I0
I1
tp4038
a(I7508774
I0
I1
tp4039
a(I7522721
I1
I1
tp4040
a(I7586936
I0
I1
tp4041
a(I7681301
I0
I1
tp4042
a(I7907848
I0
I0
tp4043
a(I7907848
I1
I1
tp4044
a(I7933596
I3
I0
tp4045
a(I8017432
I0
I0
tp4046
a(I8097844
I1
I1
tp4047
a(I8345190
I2
I1
tp4048
a(I8422308
I0
I0
tp4049
a(I8422308
I3
I0
tp4050
a(I8470539
I1
I0
tp4051
a(I8671702
I0
I1
tp4052
a(I8682336
I0
I1
tp4053
a(I8714744
I4
I0
tp4054
a(I8780912
I1
I0
tp4055
a(I8780912
I4
I1
tp4056
a(I8780912
I6
I1
tp4057
a(I8916209
I1
I0
tp4058
a(I8937566
I1
I1
tp4059
a(I9013354
I2
I0
tp4060
a(I9013354
I4
I0
tp4061
a(I9091299
I0
I0
tp4062
a(I9232944
I1
I1
tp4063
a(I9406400
I0
I1
tp4064
a(I9406400
I1
I0
tp4065
a(I9416947
I1
I0
tp4066
a(I9419848
I0
I0
tp4067
a(I9460992
I1
I1
tp4068
a(I9465236
I3
I0
tp4069
a(I9630668
I0
I1
tp4070
a(I9671165
I1
I1
tp4071
a(I9761554
I0
I1
tp4072
a(I9761562
I0
I1
tp4073
a(I9787427
I0
I1
tp4074
a(I9787427
I1
I1
tp4075
a(I9857382
I0
I1
tp4076
a(I9969684
I2
I1
tp4077
a(I10024640
I1
I0
tp4078
a(I10040037
I3
I0
tp4079
a(I10040037
I5
I0
tp4080
a(I10099326
I0
I1
tp4081
a(I10108070
I1
I1
tp4082
a(I10108368
I8
I1
tp4083
a(I10112614
I0
I1
tp4084
a(I10112614
I1
I1
tp4085
a(I10126668
I4
I0
tp4086
a(I10127973
I0
I0
tp4087
a(I10429919
I0
I0
tp4088
a(I10437805
I1
I0
tp4089
a(I10437805
I2
I1
tp4090
a(I10460286
I0
I1
tp4091
a(I10472907
I1
I1
tp4092
a(I10526579
I1
I0
tp4093
a(I10586471
I1
I0
tp4094
a(I10610592
I1
I0
tp4095
a(I10636203
I0
I0
tp4096
a(I10741346
I1
I0
tp4097
a(I10805846
I0
I0
tp4098
a(I10870736
I2
I1
tp4099
a(I10921316
I0
I0
tp4100
a(I10961378
I2
I0
tp4101
a(I10963952
I1
I1
tp4102
a(I10963952
I2
I0
tp4103
a(I11040604
I2
I0
tp4104
a(I11052920
I1
I1
tp4105
a(I11078122
I1
I0
tp4106
a(I11159668
I0
I0
tp4107
a(I11185516
I0
I1
tp4108
a(I11185516
I1
I0
tp4109
a(I11198718
I0
I0
tp4110
a(I11207302
I0
I1
tp4111
a(I11207302
I1
I0
tp4112
a(I11255432
I1
I0
tp4113
a(I11269104
I1
I0
tp4114
a(I11269104
I2
I0
tp4115
a(I11388032
I2
I1
tp4116
a(I11390421
I0
I0
tp4117
a(I11444222
I0
I1
tp4118
a(I11457839
I0
I1
tp4119
a(I11519787
I0
I1
tp4120
a(I11519787
I2
I1
tp4121
a(I11611183
I0
I1
tp4122
a(I11668603
I0
I1
tp4123
a(I11668603
I5
I0
tp4124
a(I11691679
I2
I0
tp4125
a(I11762422
I0
I0
tp4126
a(I11805535
I1
I0
tp4127
a(I11816741
I1
I0
tp4128
a(I11827100
I0
I0
tp4129
a(I11827100
I2
I0
tp4130
a(I11830474
I3
I1
tp4131
a(I11832984
I1
I0
tp4132
a(I11832984
I3
I0
tp4133
a(I11968976
I0
I1
tp4134
a(I12059634
I2
I0
tp4135
a(I12081704
I0
I0
tp4136
a(I12081704
I2
I0
tp4137
a(I12081704
I4
I0
tp4138
a(I12102342
I0
I0
tp4139
a(I12184015
I2
I0
tp4140
a(I12227084
I0
I1
tp4141
a(I12329807
I1
I0
tp4142
a(I12504976
I0
I0
tp4143
a(I12713743
I2
I0
tp4144
a(I12824228
I0
I0
tp4145
a(I12901066
I0
I1
tp4146
a(I12923835
I1
I0
tp4147
a(I13097764
I1
I0
tp4148
a(I13098173
I2
I0
tp4149
a(I13247749
I0
I1
tp4150
a(I13279399
I1
I0
tp4151
a(I13382774
I1
I0
tp4152
a(I13407560
I1
I1
tp4153
a(I13454695
I0
I0
tp4154
a(I13562613
I0
I1
tp4155
a(I13794620
I0
I0
tp4156
a(I13839905
I1
I0
tp4157
a(I13882808
I0
I0
tp4158
a(I13936068
I0
I0
tp4159
a(I13953964
I4
I0
tp4160
a(I13983620
I1
I1
tp4161
a(I14014292
I1
I0
tp4162
a(I14047979
I0
I0
tp4163
a(I14208280
I1
I0
tp4164
a(I14258317
I0
I0
tp4165
a(I14258317
I2
I0
tp4166
a(I14275975
I1
I1
tp4167
a(I14285049
I0
I1
tp4168
a(I14363016
I2
I0
tp4169
a(I14407563
I1
I0
tp4170
a(I14436970
I2
I0
tp4171
a(I14462993
I2
I0
tp4172
a(I14536778
I0
I1
tp4173
a(I14536778
I2
I1
tp4174
a(I14555771
I1
I0
tp4175
a(I14572495
I1
I1
tp4176
a(I14582852
I1
I0
tp4177
a(I14601544
I0
I0
tp4178
a(I14601544
I2
I0
tp4179
a(I14622698
I0
I0
tp4180
a(I14622698
I5
I0
tp4181
a(I14686212
I0
I1
tp4182
a(I14692029
I0
I1
tp4183
a(I14692029
I1
I1
tp4184
a(I14710221
I1
I1
tp4185
a(I14720912
I1
I1
tp4186
a(I14783438
I0
I1
tp4187
a(I14808945
I2
I0
tp4188
a(I14812510
I0
I1
tp4189
a(I14812510
I1
I0
tp4190
a(I14815365
I0
I1
tp4191
a(I14972601
I1
I1
tp4192
a(I15009180
I0
I1
tp4193
a(I15014326
I1
I0
tp4194
a(I15066913
I1
I0
tp4195
a(I15089310
I1
I1
tp4196
a(I15109165
I1
I1
tp4197
a(I15183718
I0
I1
tp4198
a(I15211991
I2
I0
tp4199
a(I15304076
I0
I1
tp4200
a(I15462548
I0
I0
tp4201
a(I15510367
I2
I0
tp4202
a(I15547217
I1
I0
tp4203
a(I15688462
I1
I1
tp4204
a(I15708416
I0
I1
tp4205
a(I15708416
I1
I1
tp4206
a(I15721679
I4
I0
tp4207
a(I15782606
I1
I0
tp4208
a(I15793715
I0
I1
tp4209
a(I15815999
I1
I1
tp4210
a(I15869158
I1
I1
tp4211
a(I15971308
I1
I0
tp4212
a(I16123732
I0
I0
tp4213
a(I16155921
I0
I1
tp4214
a(I16160474
I0
I1
tp4215
a(I16207633
I0
I0
tp4216
a(I16253958
I1
I1
tp4217
a(I16257087
I1
I1
tp4218
a(I16397116
I0
I0
tp4219
a(I16402525
I2
I0
tp4220
a(I16500670
I0
I1
tp4221
a(I16515465
I1
I0
tp4222
a(I16689457
I0
I1
tp4223
a(I16862690
I0
I1
tp4224
a(I16980554
I0
I0
tp4225
a(I17013381
I0
I1
tp4226
a(I17065977
I1
I1
tp4227
a(I17103701
I0
I0
tp4228
a(I17122268
I0
I1
tp4229
a(I17122268
I1
I0
tp4230
a(I17144809
I1
I0
tp4231
a(I17203403
I1
I1
tp4232
a(I17211188
I0
I1
tp4233
a(I17250660
I0
I1
tp4234
a(I17250660
I1
I1
tp4235
a(I17365289
I0
I1
tp4236
a(I17426202
I2
I1
tp4237
a(I17507325
I1
I1
tp4238
a(I17507325
I2
I0
tp4239
a(I17507841
I2
I1
tp4240
a(I17534484
I4
I0
tp4241
a(I17555470
I0
I1
tp4242
a(I17559933
I1
I0
tp4243
a(I17561901
I0
I0
tp4244
a(I17598881
I0
I0
tp4245
a(I17598881
I3
I0
tp4246
a(I17641195
I1
I0
tp4247
a(I17762515
I0
I0
tp4248
a(I17774547
I1
I1
tp4249
a(I17811168
I2
I0
tp4250
a(I17910359
I1
I1
tp4251
a(I17958069
I1
I0
tp4252
a(I18016779
I0
I0
tp4253
a(I18024402
I0
I0
tp4254
a(I18040702
I3
I1
tp4255
a(I18085030
I0
I0
tp4256
a(I18085030
I2
I0
tp4257
a(I18085030
I3
I0
tp4258
a(I18088496
I1
I1
tp4259
a(I18108438
I1
I1
tp4260
a(I18114415
I0
I1
tp4261
a(I18114415
I2
I1
tp4262
a(I18217858
I0
I1
tp4263
a(I18233948
I0
I1
tp4264
a(I18250516
I1
I1
tp4265
a(I18250516
I2
I1
tp4266
a(I18286362
I0
I0
tp4267
a(I18325280
I1
I1
tp4268
a(I18340475
I0
I1
tp4269
a(I18443220
I0
I1
tp4270
a(I18474538
I0
I0
tp4271
a(I18474538
I6
I1
tp4272
a(I18497810
I0
I1
tp4273
a(I18507736
I0
I1
tp4274
a(I18580032
I1
I1
tp4275
a(I18682304
I1
I1
tp4276
a(I18696264
I1
I1
tp4277
a(I18706785
I0
I1
tp4278
a(I18727686
I0
I0
tp4279
a(I18765094
I2
I0
tp4280
a(I18787830
I2
I1
tp4281
a(I18802249
I0
I0
tp4282
a(I18817616
I1
I0
tp4283
a(I18938302
I1
I0
tp4284
a(I18972212
I1
I0
tp4285
a(I18972212
I2
I1
tp4286
a(I19045971
I0
I1
tp4287
a(I19124072
I2
I0
tp4288
a(I19199869
I6
I0
tp4289
a(I19209860
I0
I0
tp4290
a(I19215100
I1
I1
tp4291
a(I19221073
I0
I1
tp4292
a(I19241166
I0
I0
tp4293
a(I19241166
I2
I1
tp4294
a(I19288469
I0
I1
tp4295
a(I19317766
I1
I0
tp4296
a(I19317766
I2
I0
tp4297
a(I19369025
I0
I0
tp4298
a(I19461747
I2
I0
tp4299
a(I19529825
I0
I1
tp4300
a(I19529825
I1
I0
tp4301
a(I19529825
I3
I0
tp4302
a(I19552183
I1
I0
tp4303
a(I19618514
I1
I0
tp4304
a(I19641162
I1
I1
tp4305
a(I19666356
I0
I1
tp4306
a(I19666356
I1
I1
tp4307
a(I19716770
I0
I0
tp4308
a(I19728214
I0
I1
tp4309
a(I19835824
I1
I0
tp4310
a(I19882621
I2
I0
tp4311
a(I19894715
I0
I1
tp4312
a(I19908167
I0
I1
tp4313
a(I19923464
I2
I0
tp4314
a(I19936790
I1
I1
tp4315
a(I20153165
I0
I0
tp4316
a(I20190748
I1
I0
tp4317
a(I20215266
I0
I0
tp4318
a(I20224501
I1
I0
tp4319
a(I20234453
I1
I0
tp4320
a(I20249149
I3
I0
tp4321
a(I20283478
I0
I1
tp4322
a(I20316339
I1
I1
tp4323
a(I20339462
I2
I0
tp4324
a(I20385957
I1
I1
tp4325
a(I20414562
I0
I1
tp4326
a(I20414562
I1
I0
tp4327
a(I20431617
I0
I0
tp4328
a(I20445672
I0
I1
tp4329
a(I20445672
I2
I1
tp4330
a(I20511905
I0
I1
tp4331
a(I20593215
I0
I1
tp4332
a(I20622240
I1
I0
tp4333
a(I20672238
I0
I0
tp4334
a(I20695432
I2
I0
tp4335
a(I20778951
I0
I1
tp4336
a(I20789412
I0
I1
tp4337
a(I20825173
I3
I0
tp4338
a(I20825173
I5
I0
tp4339
a(I20846235
I0
I0
tp4340
a(I20857188
I4
I0
tp4341
a(I20974696
I1
I1
tp4342
a(I20990336
I1
I0
tp4343
a(I21015447
I4
I0
tp4344
a(I21080357
I0
I0
tp4345
a(I21080357
I3
I0
tp4346
a(I21091802
I1
I0
tp4347
a(I21106965
I0
I1
tp4348
a(I21126108
I0
I1
tp4349
a(I21159782
I0
I1
tp4350
a(I21162819
I0
I1
tp4351
a(I21162819
I1
I0
tp4352
a(I21175455
I0
I0
tp4353
a(I21208724
I0
I0
tp4354
a(I21208724
I3
I0
tp4355
a(I21208724
I4
I1
tp4356
a(I21211756
I0
I1
tp4357
a(I21219262
I1
I1
tp4358
a(I21298191
I1
I1
tp4359
a(I21310549
I2
I0
tp4360
a(I21314143
I3
I1
tp4361
a(I21314143
I4
I1
tp4362
a(I21333339
I1
I0
tp4363
a(I21423213
I0
I1
tp4364
a(I21439948
I0
I0
tp4365
a(I21447599
I0
I1
tp4366
a(I21447599
I1
I1
tp4367
a(I21505354
I0
I1
tp4368
a(I21513187
I0
I0
tp4369
a(I21513187
I1
I0
tp4370
a(I21668606
I3
I0
tp4371
a(I21712375
I0
I0
tp4372
a(I21720721
I0
I1
tp4373
a(I21756477
I3
I0
tp4374
a(I21817657
I1
I0
tp4375
a(I21885814
I1
I1
tp4376
a(I21896326
I1
I1
tp4377
a(I21905433
I0
I1
tp4378
a(I21906759
I0
I1
tp4379
a(I21928814
I1
I0
tp4380
a(I22019213
I0
I1
tp4381
a(I22019213
I1
I1
tp4382
a(I22023193
I2
I0
tp4383
a(I22042490
I1
I0
tp4384
a(I22119987
I0
I1
tp4385
a(I22122385
I1
I1
tp4386
a(I22158110
I0
I0
tp4387
a(I22158110
I1
I0
tp4388
a(I22214949
I1
I1
tp4389
a(I22332069
I0
I1
tp4390
a(I22462728
I0
I1
tp4391
a(I22518000
I1
I1
tp4392
a(I22518000
I2
I0
tp4393
a(I22535316
I1
I0
tp4394
a(I22616944
I2
I0
tp4395
a(I22674166
I0
I1
tp4396
a(I22700457
I0
I1
tp4397
a(I22700457
I1
I1
tp4398
a(I22700457
I2
I1
tp4399
a(I22700457
I3
I1
tp4400
a(I22727800
I1
I1
tp4401
a(I22750555
I1
I0
tp4402
a(I22775168
I0
I0
tp4403
a(I22880882
I1
I0
tp4404
a(I22912351
I1
I0
tp4405
a(I22953550
I2
I0
tp4406
a(I23025497
I2
I1
tp4407
a(I23025497
I3
I0
tp4408
a(I23039188
I0
I1
tp4409
a(I23047215
I2
I1
tp4410
a(I23147735
I0
I1
tp4411
a(I23231840
I2
I0
tp4412
a(I23248583
I2
I0
tp4413
a(I23271192
I1
I1
tp4414
a(I23297197
I2
I0
tp4415
a(I23298460
I0
I0
tp4416
a(I23298460
I1
I0
tp4417
a(I23298460
I2
I0
tp4418
a(I23310630
I0
I1
tp4419
a(I23310630
I1
I1
tp4420
a(I23429426
I1
I1
tp4421
a(I23441228
I0
I1
tp4422
a(I23441228
I1
I0
tp4423
a(I23555829
I1
I0
tp4424
a(I23575195
I0
I0
tp4425
a(I23587296
I0
I1
tp4426
a(I23613138
I0
I1
tp4427
a(I23614259
I1
I0
tp4428
a(I23635576
I0
I0
tp4429
a(I23642406
I1
I1
tp4430
a(I23699378
I4
I1
tp4431
a(I23866378
I3
I0
tp4432
a(I23918947
I1
I1
tp4433
a(I24002551
I1
I0
tp4434
a(I24018965
I1
I0
tp4435
a(I24024966
I0
I1
tp4436
a(I24042596
I1
I1
tp4437
a(I24084817
I4
I0
tp4438
a(I24097930
I1
I1
tp4439
a(I24108842
I0
I1
tp4440
a(I24129445
I0
I0
tp4441
a(I24129445
I1
I0
tp4442
a(I24191793
I0
I1
tp4443
a(I24195234
I0
I1
tp4444
a(I24195898
I0
I1
tp4445
a(I24243929
I1
I0
tp4446
a(I24269756
I2
I1
tp4447
a(I24314839
I1
I1
tp4448
a(I24319973
I0
I0
tp4449
a(I24319973
I1
I0
tp4450
a(I24325232
I0
I1
tp4451
a(I24406677
I0
I0
tp4452
a(I24406677
I2
I0
tp4453
a(I24427828
I4
I0
tp4454
a(I24438325
I1
I0
tp4455
a(I24495059
I1
I1
tp4456
a(I24496320
I0
I1
tp4457
a(I24593478
I0
I1
tp4458
a(I24642669
I2
I1
tp4459
a(I24660923
I0
I1
tp4460
a(I24674723
I0
I1
tp4461
a(I24697061
I0
I1
tp4462
a(I24747996
I1
I0
tp4463
a(I24780464
I3
I0
tp4464
a(I24787224
I2
I1
tp4465
a(I24787224
I4
I0
tp4466
a(I24834560
I1
I1
tp4467
a(I24886310
I0
I1
tp4468
a(I24896943
I1
I0
tp4469
a(I24915181
I1
I0
tp4470
a(I25025291
I1
I0
tp4471
a(I25047254
I1
I0
tp4472
a(I25047254
I2
I0
tp4473
a(I25047254
I4
I0
tp4474
a(I25057912
I0
I0
tp4475
a(I25057912
I1
I0
tp4476
a(I25068218
I0
I1
tp4477
a(I25068218
I1
I1
tp4478
a(I25088066
I2
I0
tp4479
a(I25100105
I1
I0
tp4480
a(I25137972
I1
I0
tp4481
a(I25233885
I0
I0
tp4482
a(I25233885
I1
I0
tp4483
a(I25469326
I0
I0
tp4484
a(I25641980
I2
I0
tp4485
a(I25649412
I4
I0
tp4486
a(I25690354
I7
I0
tp4487
a(I25705612
I3
I0
tp4488
a(I25726345
I0
I1
tp4489
a(I25728442
I1
I0
tp4490
a(I25883410
I0
I1
tp4491
a(I25923521
I0
I0
tp4492
a(I25923521
I1
I0
tp4493
a(I26126880
I1
I0
tp4494
a(I26205922
I1
I0
tp4495
a(I26238723
I0
I0
tp4496
a(I26279903
I1
I1
tp4497
a(I26321557
I0
I1
tp4498
a(I26321557
I1
I1
tp4499
a(I26427128
I0
I0
tp4500
a(I26453595
I1
I1
tp4501
a(I26498794
I1
I1
tp4502
a(I26562487
I0
I1
tp4503
a(I26613341
I1
I1
tp4504
a(I26644002
I2
I1
tp4505
a(I26694500
I1
I0
tp4506
a(I26700006
I2
I0
tp4507
a(I26705235
I1
I0
tp4508
a(I26725669
I4
I0
tp4509
a(I26742987
I0
I0
tp4510
a(I26830752
I0
I0
tp4511
a(I26830752
I1
I0
tp4512
a(I26856378
I1
I0
tp4513
a(I26871083
I4
I0
tp4514
a(I26922284
I2
I0
tp4515
a(I26934349
I2
I1
tp4516
a(I26983187
I0
I0
tp4517
a(I26983187
I2
I0
tp4518
a(I26983187
I9
I0
tp4519
a(I27031053
I2
I1
tp4520
a(I27064243
I1
I0
tp4521
a(I27103165
I2
I1
tp4522
a(I27112449
I0
I1
tp4523
a(I27127176
I0
I0
tp4524
a(I27178829
I0
I1
tp4525
a(I27216950
I2
I1
tp4526
a(I27257991
I1
I0
tp4527
a(I27265939
I1
I0
tp4528
a(I27308840
I0
I1
tp4529
a(I27331006
I0
I1
tp4530
a(I27407485
I0
I1
tp4531
a(I27407485
I1
I1
tp4532
a(I27419345
I3
I1
tp4533
a(I27444949
I0
I1
tp4534
a(I27458073
I1
I0
tp4535
a(I27585173
I0
I0
tp4536
a(I27591621
I1
I0
tp4537
a(I27605834
I0
I1
tp4538
a(I27615872
I2
I0
tp4539
a(I27670683
I0
I0
tp4540
a(I27674145
I1
I0
tp4541
a(I27743031
I0
I0
tp4542
a(I27743031
I2
I0
tp4543
a(I27743031
I3
I0
tp4544
a(I27743031
I4
I0
tp4545
a(I27781555
I1
I0
tp4546
a(I27793543
I0
I1
tp4547
a(I27805919
I0
I1
tp4548
a(I27810523
I0
I1
tp4549
a(I27823447
I1
I0
tp4550
a(I27827982
I1
I1
tp4551
a(I27827982
I4
I0
tp4552
a(I27857842
I2
I0
tp4553
a(I27857842
I3
I0
tp4554
a(I27857842
I4
I0
tp4555
a(I27857842
I6
I0
tp4556
a(I27885989
I0
I1
tp4557
a(I27960965
I1
I0
tp4558
a(I28015044
I0
I1
tp4559
a(I28015044
I1
I0
tp4560
a(I28016212
I1
I1
tp4561
a(I28020874
I1
I0
tp4562
a(I28059257
I4
I0
tp4563
a(I28059257
I5
I1
tp4564
a(I28072914
I4
I0
tp4565
a(I28104377
I2
I1
tp4566
a(I28198883
I0
I0
tp4567
a(I28244029
I0
I1
tp4568
a(I28246655
I1
I0
tp4569
a(I28246655
I2
I0
tp4570
a(I28280507
I2
I0
tp4571
a(I28306700
I0
I1
tp4572
a(I28330317
I1
I1
tp4573
a(I28348300
I1
I1
tp4574
a(I28348485
I5
I0
tp4575
a(I28348838
I0
I1
tp4576
a(I28356451
I1
I0
tp4577
a(I28364676
I1
I0
tp4578
a(I28416559
I0
I1
tp4579
a(I28416559
I4
I0
tp4580
a(I28416678
I0
I1
tp4581
a(I28416678
I2
I1
tp4582
a(I28417585
I0
I0
tp4583
a(I28438247
I0
I1
tp4584
a(I28500524
I1
I1
tp4585
a(I28647371
I0
I0
tp4586
a(I28647371
I1
I0
tp4587
a(I28647371
I4
I0
tp4588
a(I28665356
I1
I1
tp4589
a(I28677840
I1
I0
tp4590
a(I28687087
I1
I0
tp4591
a(I28766133
I1
I0
tp4592
a(I28823052
I1
I0
tp4593
a(I28823052
I4
I0
tp4594
a(I28823170
I0
I1
tp4595
a(I28832166
I0
I1
tp4596
a(I28832166
I1
I1
tp4597
a(I28898735
I0
I1
tp4598
a(I28907503
I0
I1
tp4599
a(I28907503
I3
I0
tp4600
a(I28928049
I0
I1
tp4601
a(I29058643
I0
I1
tp4602
a(I29083478
I1
I0
tp4603
a(I29087010
I1
I1
tp4604
a(I29114133
I0
I1
tp4605
a(I29153805
I0
I1
tp4606
a(I29153805
I2
I1
tp4607
a(I29155628
I1
I0
tp4608
a(I29192826
I3
I0
tp4609
a(I29246483
I0
I1
tp4610
a(I29263680
I0
I1
tp4611
a(I29327493
I1
I0
tp4612
a(I29384588
I0
I0
tp4613
a(I29392606
I0
I1
tp4614
a(I29571644
I0
I0
tp4615
a(I29831030
I0
I1
tp4616
a(I29857558
I1
I0
tp4617
a(I29908931
I0
I1
tp4618
a(I29932225
I0
I1
tp4619
a(I29947844
I1
I1
tp4620
a(I29974139
I1
I0
tp4621
a(I30068271
I1
I1
tp4622
a(I30071618
I1
I1
tp4623
a(I30133281
I0
I1
tp4624
a(I30156357
I0
I1
tp4625
a(I30156357
I1
I0
tp4626
a(I30170614
I1
I1
tp4627
a(I30196224
I1
I1
tp4628
a(I30198481
I1
I0
tp4629
a(I30198481
I3
I0
tp4630
a(I30209723
I1
I0
tp4631
a(I30229104
I0
I1
tp4632
a(I30229104
I3
I1
tp4633
a(I30229104
I4
I1
tp4634
a(I30272538
I5
I0
tp4635
a(I30405409
I0
I0
tp4636
a(I30405409
I1
I1
tp4637
a(I30405409
I2
I1
tp4638
a(I30411388
I0
I1
tp4639
a(I30414578
I2
I0
tp4640
a(I30464454
I0
I1
tp4641
a(I30464454
I1
I0
tp4642
a(I30506746
I2
I1
tp4643
a(I30507442
I1
I0
tp4644
a(I30515888
I0
I1
tp4645
a(I30515888
I1
I1
tp4646
a(I30578068
I2
I0
tp4647
a(I30683301
I1
I0
tp4648
a(I30701329
I4
I1
tp4649
a(I30727894
I0
I0
tp4650
a(I30740326
I0
I0
tp4651
a(I30784217
I0
I0
tp4652
a(I30795450
I0
I1
tp4653
a(I30801180
I0
I1
tp4654
a(I30837683
I1
I1
tp4655
a(I30904903
I3
I0
tp4656
a(I30925637
I1
I1
tp4657
a(I30960440
I3
I0
tp4658
a(I31014848
I0
I1
tp4659
a(I31124914
I0
I1
tp4660
a(I31146021
I0
I0
tp4661
a(I31193012
I1
I0
tp4662
a(I31202918
I3
I0
tp4663
a(I31349527
I0
I1
tp4664
a(I31370701
I2
I0
tp4665
a(I31404238
I1
I0
tp4666
a(I31404238
I4
I0
tp4667
a(I31404492
I0
I0
tp4668
a(I31416465
I0
I1
tp4669
a(I31416465
I1
I0
tp4670
a(I31416465
I2
I1
tp4671
a(I31440326
I2
I0
tp4672
a(I31456902
I2
I0
tp4673
a(I31498516
I2
I1
tp4674
a(I31611288
I0
I0
tp4675
a(I31649843
I0
I1
tp4676
a(I31650674
I0
I0
tp4677
a(I31663775
I1
I1
tp4678
a(I31704411
I0
I0
tp4679
a(I31742274
I1
I0
tp4680
a(I31768613
I0
I0
tp4681
a(I31828240
I1
I1
tp4682
a(I31841487
I0
I1
tp4683
a(I31847577
I0
I1
tp4684
a(I31847577
I4
I0
tp4685
a(I31919765
I0
I1
tp4686
a(I31919765
I1
I1
tp4687
a(I31957215
I0
I1
tp4688
a(I32018206
I0
I1
tp4689
a(I32161369
I3
I0
tp4690
a(I32182116
I0
I0
tp4691
a(I32214596
I0
I0
tp4692
a(I32214596
I2
I0
tp4693
a(I32215965
I1
I0
tp4694
a(I32256393
I0
I1
tp4695
a(I32295637
I0
I0
tp4696
a(I32298978
I0
I1
tp4697
a(I32314712
I2
I0
tp4698
a(I32316244
I1
I0
tp4699
a(I32365358
I2
I0
tp4700
a(I32390539
I0
I0
tp4701
a(I32403846
I1
I0
tp4702
a(I32458370
I2
I0
tp4703
a(I32458370
I5
I0
tp4704
a(I32471239
I0
I1
tp4705
a(I32659345
I1
I0
tp4706
a(I32670153
I0
I1
tp4707
a(I32670153
I1
I1
tp4708
a(I32670153
I2
I1
tp4709
a(I32678322
I0
I1
tp4710
a(I32690945
I0
I1
tp4711
a(I32690945
I2
I1
tp4712
a(I32821122
I0
I1
tp4713
a(I32907015
I2
I0
tp4714
a(I32921049
I0
I1
tp4715
a(I32921049
I2
I0
tp4716
a(I32940738
I0
I1
tp4717
a(I32940738
I1
I1
tp4718
a(I32966627
I0
I1
tp4719
a(I32998355
I0
I1
tp4720
a(I33003547
I1
I0
tp4721
a(I33019600
I0
I1
tp4722
a(I33037416
I2
I1
tp4723
a(I33069366
I2
I0
tp4724
a(I33103802
I1
I0
tp4725
a(I33105265
I0
I1
tp4726
a(I33139927
I1
I0
tp4727
a(I33140945
I2
I0
tp4728
a(I33144460
I0
I1
tp4729
a(I33296707
I0
I1
tp4730
a(I33385238
I1
I1
tp4731
a(I33402355
I0
I1
tp4732
a(I33404038
I1
I0
tp4733
a(I33431816
I2
I0
tp4734
a(I33466627
I1
I0
tp4735
a(I33519408
I0
I1
tp4736
a(I33519408
I2
I1
tp4737
a(I33553826
I3
I1
tp4738
a(I33554230
I0
I1
tp4739
a(I33569374
I1
I0
tp4740
a(I33577686
I0
I1
tp4741
a(I33595664
I0
I1
tp4742
a(I33705180
I0
I1
tp4743
a(I33729888
I0
I1
tp4744
a(I33857555
I1
I0
tp4745
a(I33927174
I1
I0
tp4746
a(I33927174
I2
I0
tp4747
a(I33928554
I5
I0
tp4748
a(I33928554
I6
I0
tp4749
a(I34114554
I0
I0
tp4750
a(I34114554
I1
I0
tp4751
a(I34114554
I4
I0
tp4752
a(I34117408
I2
I0
tp4753
a(I34117408
I5
I1
tp4754
a(I34146679
I0
I0
tp4755
a(I34206921
I2
I0
tp4756
a(I34244726
I4
I0
tp4757
a(I34251684
I0
I1
tp4758
a(I34271014
I2
I0
tp4759
a(I34286165
I0
I1
tp4760
a(I34300499
I1
I0
tp4761
a(I34300499
I2
I0
tp4762
a(I34301088
I1
I0
tp4763
a(I34382144
I0
I0
tp4764
a(I34403494
I0
I1
tp4765
a(I34444319
I0
I1
tp4766
a(I34452644
I0
I0
tp4767
a(I34452644
I5
I0
tp4768
a(I34463966
I1
I0
tp4769
a(I34478011
I0
I0
tp4770
a(I34478011
I2
I0
tp4771
a(I34514629
I0
I0
tp4772
a(I34569966
I0
I1
tp4773
a(I34569966
I4
I1
tp4774
a(I34596082
I1
I1
tp4775
a(I34601770
I1
I1
tp4776
a(I34637002
I0
I1
tp4777
a(I34637002
I1
I0
tp4778
a(I34638457
I1
I0
tp4779
a(I34683678
I0
I1
tp4780
a(I34701261
I0
I1
tp4781
a(I34701261
I1
I1
tp4782
a(I34715227
I1
I0
tp4783
a(I34734933
I0
I1
tp4784
a(I34755636
I0
I1
tp4785
a(I34755636
I1
I1
tp4786
a(I34773317
I0
I1
tp4787
a(I34799167
I0
I0
tp4788
a(I34818228
I2
I1
tp4789
a(I34824864
I1
I1
tp4790
a(I34837194
I0
I1
tp4791
a(I34845096
I2
I0
tp4792
a(I34859683
I1
I1
tp4793
a(I34910228
I2
I0
tp4794
a(I34910228
I4
I0
tp4795
a(I34931548
I0
I1
tp4796
a(I34936864
I1
I1
tp4797
a(I35020513
I0
I1
tp4798
a(I35025400
I1
I0
tp4799
a(I35108136
I1
I1
tp4800
a(I35159791
I1
I1
tp4801
a(I35199556
I0
I1
tp4802
a(I35205400
I0
I1
tp4803
a(I35205400
I1
I0
tp4804
a(I35209114
I0
I1
tp4805
a(I35232897
I1
I1
tp4806
a(I35252265
I6
I0
tp4807
a(I35254886
I1
I0
tp4808
a(I35261899
I0
I1
tp4809
a(I35281863
I0
I0
tp4810
a(I35318700
I0
I1
tp4811
a(I35344237
I1
I0
tp4812
a(I35354005
I1
I1
tp4813
a(I35373082
I1
I0
tp4814
a(I35389648
I0
I1
tp4815
a(I35389648
I1
I1
tp4816
a(I35431172
I4
I1
tp4817
a(I35431172
I6
I0
tp4818
a(I35432378
I0
I1
tp4819
a(I35481842
I1
I0
tp4820
a(I35485675
I0
I0
tp4821
a(I35489107
I2
I0
tp4822
a(I35493086
I0
I1
tp4823
a(I35510590
I0
I0
tp4824
a(I35526501
I0
I1
tp4825
a(I35619038
I2
I0
tp4826
a(I35619038
I5
I0
tp4827
a(I35619038
I6
I0
tp4828
a(I35664103
I0
I1
tp4829
a(I35668472
I0
I1
tp4830
a(I35720234
I1
I1
tp4831
a(I35720330
I0
I0
tp4832
a(I35720330
I2
I0
tp4833
a(I35774261
I0
I0
tp4834
a(I35781083
I1
I1
tp4835
a(I35847865
I0
I1
tp4836
a(I35890697
I0
I1
tp4837
a(I35962295
I0
I1
tp4838
a(I36071592
I1
I0
tp4839
a(I36086075
I1
I0
tp4840
a(I36170581
I0
I0
tp4841
a(I36186624
I2
I0
tp4842
a(I36282772
I0
I1
tp4843
a(I36336637
I0
I1
tp4844
a(I36409213
I0
I1
tp4845
a(I36464357
I0
I0
tp4846
a(I36550795
I2
I0
tp4847
a(I36559053
I1
I1
tp4848
a(I36597386
I0
I1
tp4849
a(I36731365
I1
I1
tp4850
a(I36744627
I1
I0
tp4851
a(I36753799
I1
I1
tp4852
a(I36779891
I1
I0
tp4853
a(I36798227
I0
I0
tp4854
a(I36799190
I3
I0
tp4855
a(I36804586
I1
I1
tp4856
a(I36806340
I4
I0
tp4857
a(I36835793
I2
I0
tp4858
a(I36835793
I5
I0
tp4859
a(I36845683
I1
I0
tp4860
a(I36921573
I1
I1
tp4861
a(I36935617
I1
I0
tp4862
a(I36949277
I3
I0
tp4863
a(I36967883
I3
I0
tp4864
a(I36971201
I1
I0
tp4865
a(I36974140
I1
I0
tp4866
a(I37079175
I3
I0
tp4867
a(I37154201
I0
I1
tp4868
a(I37154201
I1
I0
tp4869
a(I37232279
I1
I0
tp4870
a(I37258152
I2
I0
tp4871
a(I37299064
I0
I1
tp4872
a(I37316698
I0
I1
tp4873
a(I37316698
I1
I1
tp4874
a(I37348050
I2
I0
tp4875
a(I37397296
I1
I0
tp4876
a(I37399461
I1
I0
tp4877
a(I37423445
I1
I0
tp4878
a(I37425477
I1
I0
tp4879
a(I37482313
I0
I0
tp4880
a(I37605612
I0
I0
tp4881
a(I37630714
I0
I1
tp4882
a(I37758227
I1
I0
tp4883
a(I37760124
I0
I0
tp4884
a.