(lp0
(I79789
I0
I0
tp1
a(I79789
I1
I0
tp2
a(I182130
I0
I1
tp3
a(I182130
I2
I0
tp4
a(I192220
I3
I0
tp5
a(I192220
I5
I0
tp6
a(I192220
I6
I0
tp7
a(I192220
I7
I0
tp8
a(I216007
I2
I0
tp9
a(I289649
I0
I1
tp10
a(I363084
I2
I0
tp11
a(I374079
I0
I1
tp12
a(I374079
I1
I0
tp13
a(I439138
I2
I0
tp14
a(I521270
I0
I1
tp15
a(I539942
I0
I1
tp16
a(I556509
I1
I0
tp17
a(I576071
I0
I1
tp18
a(I603504
I0
I0
tp19
a(I603504
I1
I0
tp20
a(I684106
I0
I1
tp21
a(I684106
I1
I1
tp22
a(I706664
I0
I0
tp23
a(I713960
I1
I1
tp24
a(I713960
I2
I1
tp25
a(I726582
I1
I0
tp26
a(I726582
I3
I0
tp27
a(I726582
I4
I0
tp28
a(I802027
I1
I1
tp29
a(I852225
I0
I0
tp30
a(I852225
I1
I0
tp31
a(I895876
I1
I0
tp32
a(I938232
I1
I1
tp33
a(I955927
I0
I0
tp34
a(I955927
I1
I0
tp35
a(I970357
I0
I0
tp36
a(I970357
I2
I0
tp37
a(I1069311
I1
I0
tp38
a(I1069311
I2
I0
tp39
a(I1070122
I2
I1
tp40
a(I1074529
I1
I0
tp41
a(I1074529
I3
I0
tp42
a(I1154702
I1
I1
tp43
a(I1179355
I0
I1
tp44
a(I1179355
I1
I0
tp45
a(I1197943
I0
I0
tp46
a(I1207740
I0
I1
tp47
a(I1263780
I1
I1
tp48
a(I1263780
I2
I1
tp49
a(I1326701
I0
I0
tp50
a(I1341505
I0
I0
tp51
a(I1344697
I1
I0
tp52
a(I1362148
I1
I0
tp53
a(I1421404
I1
I1
tp54
a(I1479831
I0
I1
tp55
a(I1627604
I1
I1
tp56
a(I1627604
I2
I1
tp57
a(I1700110
I2
I1
tp58
a(I1700110
I3
I0
tp59
a(I1712077
I0
I1
tp60
a(I1742507
I1
I1
tp61
a(I1773534
I0
I0
tp62
a(I1784283
I1
I1
tp63
a(I1809787
I1
I0
tp64
a(I1809787
I2
I1
tp65
a(I1822504
I1
I1
tp66
a(I1830015
I0
I1
tp67
a(I1830015
I1
I1
tp68
a(I1853433
I0
I0
tp69
a(I1858559
I0
I1
tp70
a(I1858559
I1
I1
tp71
a(I1979522
I2
I0
tp72
a(I1979522
I3
I0
tp73
a(I2044752
I1
I0
tp74
a(I2045053
I1
I1
tp75
a(I2056938
I0
I1
tp76
a(I2056938
I1
I1
tp77
a(I2056938
I2
I1
tp78
a(I2169720
I0
I1
tp79
a(I2169720
I1
I1
tp80
a(I2169720
I2
I1
tp81
a(I2199315
I0
I1
tp82
a(I2199315
I1
I1
tp83
a(I2289907
I0
I1
tp84
a(I2289907
I1
I1
tp85
a(I2289907
I2
I1
tp86
a(I2318539
I0
I0
tp87
a(I2355791
I0
I1
tp88
a(I2386632
I0
I1
tp89
a(I2386632
I2
I1
tp90
a(I2401396
I1
I1
tp91
a(I2411210
I1
I0
tp92
a(I2461579
I1
I0
tp93
a(I2466091
I0
I1
tp94
a(I2473843
I0
I1
tp95
a(I2473843
I1
I1
tp96
a(I2473843
I2
I1
tp97
a(I2524600
I1
I0
tp98
a(I2524600
I2
I1
tp99
a(I2559110
I0
I1
tp100
a(I2559110
I2
I0
tp101
a(I2559110
I3
I1
tp102
a(I2563918
I1
I1
tp103
a(I2588304
I1
I1
tp104
a(I2640048
I0
I1
tp105
a(I2640048
I1
I1
tp106
a(I2651249
I1
I0
tp107
a(I2651249
I2
I0
tp108
a(I2695116
I0
I0
tp109
a(I2695116
I1
I0
tp110
a(I2695116
I2
I0
tp111
a(I2695116
I3
I0
tp112
a(I2746331
I1
I1
tp113
a(I2769007
I1
I0
tp114
a(I2781315
I0
I1
tp115
a(I2781315
I1
I1
tp116
a(I2781419
I1
I1
tp117
a(I2781419
I2
I0
tp118
a(I2788575
I0
I1
tp119
a(I2788575
I1
I1
tp120
a(I2792388
I0
I1
tp121
a(I2884295
I1
I1
tp122
a(I2900217
I1
I1
tp123
a(I2900217
I2
I1
tp124
a(I2913338
I3
I1
tp125
a(I2922856
I3
I0
tp126
a(I2930768
I0
I1
tp127
a(I2978700
I1
I0
tp128
a(I3005323
I0
I0
tp129
a(I3005323
I1
I0
tp130
a(I3035105
I0
I1
tp131
a(I3053125
I0
I0
tp132
a(I3053125
I1
I0
tp133
a(I3084672
I0
I1
tp134
a(I3084672
I1
I1
tp135
a(I3167775
I0
I1
tp136
a(I3167775
I1
I1
tp137
a(I3240290
I0
I1
tp138
a(I3244796
I0
I1
tp139
a(I3296390
I0
I0
tp140
a(I3296390
I1
I0
tp141
a(I3296390
I2
I1
tp142
a(I3317750
I0
I1
tp143
a(I3317750
I1
I0
tp144
a(I3318852
I1
I1
tp145
a(I3332230
I0
I0
tp146
a(I3332230
I1
I0
tp147
a(I3345268
I1
I0
tp148
a(I3361768
I1
I1
tp149
a(I3426560
I0
I1
tp150
a(I3440516
I0
I1
tp151
a(I3440516
I2
I1
tp152
a(I3444082
I0
I1
tp153
a(I3482194
I2
I0
tp154
a(I3526673
I0
I1
tp155
a(I3526673
I1
I0
tp156
a(I3550497
I0
I1
tp157
a(I3550497
I1
I1
tp158
a(I3579079
I0
I0
tp159
a(I3579079
I1
I0
tp160
a(I3579079
I2
I0
tp161
a(I3579079
I3
I0
tp162
a(I3609687
I0
I1
tp163
a(I3609687
I2
I1
tp164
a(I3623645
I0
I0
tp165
a(I3675616
I0
I1
tp166
a(I3702873
I0
I1
tp167
a(I3805664
I0
I1
tp168
a(I3805664
I1
I1
tp169
a(I3819810
I1
I1
tp170
a(I3821642
I0
I1
tp171
a(I3827025
I1
I1
tp172
a(I3827025
I2
I1
tp173
a(I3886340
I0
I1
tp174
a(I3886340
I1
I1
tp175
a(I3895652
I0
I1
tp176
a(I3895652
I1
I0
tp177
a(I3900330
I0
I1
tp178
a(I3925043
I0
I0
tp179
a(I3925043
I1
I1
tp180
a(I3932947
I1
I1
tp181
a(I4017878
I0
I1
tp182
a(I4062845
I1
I0
tp183
a(I4062865
I0
I1
tp184
a(I4062865
I1
I0
tp185
a(I4225984
I0
I0
tp186
a(I4225984
I1
I1
tp187
a(I4226144
I0
I1
tp188
a(I4257442
I0
I1
tp189
a(I4257442
I1
I1
tp190
a(I4301603
I0
I1
tp191
a(I4301603
I1
I1
tp192
a(I4352912
I0
I1
tp193
a(I4352912
I1
I1
tp194
a(I4400347
I1
I1
tp195
a(I4429428
I0
I1
tp196
a(I4429428
I1
I0
tp197
a(I4429428
I2
I0
tp198
a(I4434581
I1
I1
tp199
a(I4441599
I0
I0
tp200
a(I4459902
I0
I1
tp201
a(I4459902
I1
I0
tp202
a(I4521020
I0
I0
tp203
a(I4521020
I1
I0
tp204
a(I4621932
I1
I1
tp205
a(I4621932
I3
I0
tp206
a(I4621932
I4
I0
tp207
a(I4761507
I0
I1
tp208
a(I4761507
I2
I1
tp209
a(I4773206
I1
I1
tp210
a(I4787104
I1
I1
tp211
a(I4823208
I1
I0
tp212
a(I4823208
I2
I1
tp213
a(I4823208
I3
I1
tp214
a(I4841038
I1
I0
tp215
a(I4841038
I2
I0
tp216
a(I4841038
I4
I0
tp217
a(I4857837
I0
I0
tp218
a(I4857837
I3
I1
tp219
a(I4866013
I1
I1
tp220
a(I4948269
I0
I1
tp221
a(I4948269
I1
I1
tp222
a(I4971561
I1
I0
tp223
a(I4986731
I0
I1
tp224
a(I4986731
I1
I1
tp225
a(I5020149
I1
I1
tp226
a(I5081080
I0
I1
tp227
a(I5081080
I1
I1
tp228
a(I5093557
I0
I0
tp229
a(I5111728
I1
I1
tp230
a(I5171809
I0
I1
tp231
a(I5182723
I0
I1
tp232
a(I5182723
I1
I1
tp233
a(I5282607
I0
I0
tp234
a(I5282607
I1
I0
tp235
a(I5290418
I0
I0
tp236
a(I5292145
I1
I1
tp237
a(I5355585
I0
I1
tp238
a(I5355585
I1
I0
tp239
a(I5355585
I2
I0
tp240
a(I5380843
I0
I0
tp241
a(I5380843
I2
I0
tp242
a(I5380843
I3
I0
tp243
a(I5393244
I1
I0
tp244
a(I5393244
I2
I0
tp245
a(I5410918
I0
I1
tp246
a(I5455914
I1
I1
tp247
a(I5479975
I2
I1
tp248
a(I5606689
I0
I0
tp249
a(I5606689
I3
I0
tp250
a(I5606689
I4
I0
tp251
a(I5719384
I0
I1
tp252
a(I5719384
I1
I0
tp253
a(I5760020
I0
I1
tp254
a(I5760020
I1
I1
tp255
a(I5795541
I0
I1
tp256
a(I5803133
I2
I0
tp257
a(I5816567
I0
I1
tp258
a(I5816567
I1
I1
tp259
a(I5943678
I1
I0
tp260
a(I6031181
I1
I0
tp261
a(I6057352
I0
I0
tp262
a(I6057352
I1
I0
tp263
a(I6070894
I1
I0
tp264
a(I6093085
I1
I1
tp265
a(I6094039
I0
I1
tp266
a(I6121779
I0
I0
tp267
a(I6121779
I1
I1
tp268
a(I6159814
I0
I0
tp269
a(I6174355
I2
I0
tp270
a(I6227934
I1
I0
tp271
a(I6254626
I0
I1
tp272
a(I6267954
I0
I1
tp273
a(I6280565
I1
I1
tp274
a(I6295650
I1
I0
tp275
a(I6333687
I1
I0
tp276
a(I6355613
I0
I1
tp277
a(I6404158
I0
I1
tp278
a(I6418214
I0
I0
tp279
a(I6418214
I2
I0
tp280
a(I6434996
I1
I0
tp281
a(I6440318
I0
I1
tp282
a(I6440318
I1
I1
tp283
a(I6524697
I0
I1
tp284
a(I6524697
I2
I1
tp285
a(I6536396
I1
I0
tp286
a(I6551214
I0
I0
tp287
a(I6551214
I2
I0
tp288
a(I6591613
I1
I0
tp289
a(I6591613
I2
I0
tp290
a(I6611453
I1
I0
tp291
a(I6616800
I0
I1
tp292
a(I6621502
I0
I0
tp293
a(I6621502
I1
I0
tp294
a(I6621502
I3
I0
tp295
a(I6673667
I0
I1
tp296
a(I6680228
I0
I0
tp297
a(I6688196
I0
I1
tp298
a(I6688196
I2
I1
tp299
a(I6688196
I5
I0
tp300
a(I6745525
I0
I0
tp301
a(I6810923
I0
I1
tp302
a(I6810923
I1
I0
tp303
a(I6811449
I0
I1
tp304
a(I6811449
I1
I1
tp305
a(I6814426
I1
I1
tp306
a(I6814563
I0
I1
tp307
a(I6814563
I1
I0
tp308
a(I6836478
I1
I0
tp309
a(I6836478
I2
I0
tp310
a(I6937080
I1
I0
tp311
a(I6994843
I0
I1
tp312
a(I6994843
I1
I0
tp313
a(I7008452
I1
I0
tp314
a(I7008452
I3
I0
tp315
a(I7116576
I1
I0
tp316
a(I7116576
I3
I0
tp317
a(I7246987
I0
I0
tp318
a(I7246987
I2
I0
tp319
a(I7246987
I4
I0
tp320
a(I7260488
I0
I1
tp321
a(I7260488
I1
I1
tp322
a(I7270243
I0
I0
tp323
a(I7274514
I1
I0
tp324
a(I7278905
I1
I0
tp325
a(I7326337
I0
I1
tp326
a(I7364969
I0
I0
tp327
a(I7364969
I3
I1
tp328
a(I7364969
I4
I1
tp329
a(I7364969
I5
I1
tp330
a(I7364969
I9
I1
tp331
a(I7364969
I11
I1
tp332
a(I7364969
I12
I1
tp333
a(I7364969
I13
I1
tp334
a(I7432065
I1
I1
tp335
a(I7557231
I1
I1
tp336
a(I7558371
I1
I0
tp337
a(I7605630
I1
I1
tp338
a(I7656057
I1
I1
tp339
a(I7676110
I0
I1
tp340
a(I7676110
I1
I1
tp341
a(I7681122
I0
I0
tp342
a(I7745609
I2
I1
tp343
a(I7748125
I1
I1
tp344
a(I7763635
I0
I1
tp345
a(I7763635
I1
I1
tp346
a(I7794875
I0
I0
tp347
a(I7794875
I1
I1
tp348
a(I7901416
I0
I0
tp349
a(I7901416
I1
I0
tp350
a(I7901416
I2
I0
tp351
a(I7905182
I0
I1
tp352
a(I7991363
I1
I1
tp353
a(I7994408
I0
I0
tp354
a(I7994408
I1
I1
tp355
a(I7994408
I2
I1
tp356
a(I8001083
I2
I1
tp357
a(I8014982
I0
I1
tp358
a(I8015482
I1
I0
tp359
a(I8015482
I2
I1
tp360
a(I8030624
I0
I1
tp361
a(I8044345
I0
I0
tp362
a(I8046345
I1
I1
tp363
a(I8046386
I0
I0
tp364
a(I8046386
I1
I1
tp365
a(I8046386
I3
I0
tp366
a(I8046386
I4
I0
tp367
a(I8073455
I1
I0
tp368
a(I8111247
I0
I1
tp369
a(I8128360
I1
I0
tp370
a(I8139699
I0
I1
tp371
a(I8143581
I0
I1
tp372
a(I8153000
I2
I1
tp373
a(I8159093
I0
I1
tp374
a(I8159093
I1
I1
tp375
a(I8216437
I1
I1
tp376
a(I8223650
I0
I1
tp377
a(I8223650
I1
I1
tp378
a(I8256892
I1
I1
tp379
a(I8293350
I0
I1
tp380
a(I8306044
I0
I1
tp381
a(I8306044
I1
I0
tp382
a(I8350660
I1
I1
tp383
a(I8384688
I0
I1
tp384
a(I8384688
I1
I1
tp385
a(I8423506
I0
I0
tp386
a(I8423506
I1
I0
tp387
a(I8451219
I1
I1
tp388
a(I8524475
I0
I1
tp389
a(I8527731
I1
I1
tp390
a(I8546198
I0
I1
tp391
a(I8546198
I2
I1
tp392
a(I8578252
I0
I1
tp393
a(I8578252
I1
I1
tp394
a(I8610517
I0
I0
tp395
a(I8629046
I0
I1
tp396
a(I8629046
I1
I1
tp397
a(I8636956
I0
I1
tp398
a(I8645254
I0
I1
tp399
a(I8647675
I0
I0
tp400
a(I8647675
I1
I0
tp401
a(I8669703
I0
I1
tp402
a(I8684054
I1
I0
tp403
a(I8718458
I0
I1
tp404
a(I8718458
I1
I1
tp405
a(I8806028
I1
I1
tp406
a(I8939857
I0
I1
tp407
a(I9015870
I0
I1
tp408
a(I9172621
I0
I0
tp409
a(I9172621
I1
I1
tp410
a(I9172621
I2
I0
tp411
a(I9197597
I0
I1
tp412
a(I9197597
I1
I1
tp413
a(I9206962
I1
I1
tp414
a(I9218949
I0
I1
tp415
a(I9218949
I2
I1
tp416
a(I9237650
I1
I1
tp417
a(I9288893
I0
I0
tp418
a(I9288893
I1
I0
tp419
a(I9288893
I2
I0
tp420
a(I9301321
I1
I1
tp421
a(I9355066
I0
I0
tp422
a(I9355066
I2
I1
tp423
a(I9394879
I3
I0
tp424
a(I9394879
I4
I0
tp425
a(I9394879
I6
I0
tp426
a(I9403894
I1
I1
tp427
a(I9419615
I1
I0
tp428
a(I9429371
I0
I1
tp429
a(I9429371
I2
I1
tp430
a(I9432630
I0
I0
tp431
a(I9432630
I2
I0
tp432
a(I9432630
I3
I0
tp433
a(I9475177
I1
I0
tp434
a(I9518900
I1
I1
tp435
a(I9535224
I1
I1
tp436
a(I9548686
I0
I0
tp437
a(I9573470
I0
I1
tp438
a(I9573470
I1
I1
tp439
a(I9623187
I1
I0
tp440
a(I9623187
I2
I0
tp441
a(I9623187
I3
I0
tp442
a(I9630004
I0
I1
tp443
a(I9630859
I1
I0
tp444
a(I9655852
I0
I0
tp445
a(I9704624
I1
I1
tp446
a(I9755681
I1
I1
tp447
a(I9764030
I0
I1
tp448
a(I9764030
I1
I0
tp449
a(I9789395
I1
I1
tp450
a(I9807875
I0
I1
tp451
a(I9807875
I1
I1
tp452
a(I9861297
I0
I0
tp453
a(I9861297
I1
I0
tp454
a(I9919278
I1
I1
tp455
a(I10019557
I1
I1
tp456
a(I10025996
I0
I1
tp457
a(I10025996
I1
I0
tp458
a(I10109770
I0
I1
tp459
a(I10109770
I1
I1
tp460
a(I10109770
I2
I0
tp461
a(I10121680
I0
I1
tp462
a(I10121680
I1
I1
tp463
a(I10121680
I2
I0
tp464
a(I10121680
I4
I0
tp465
a(I10164354
I1
I0
tp466
a(I10182533
I1
I0
tp467
a(I10189129
I0
I1
tp468
a(I10196144
I0
I1
tp469
a(I10196144
I1
I0
tp470
a(I10196144
I2
I0
tp471
a(I10199927
I0
I0
tp472
a(I10209706
I0
I1
tp473
a(I10209706
I2
I0
tp474
a(I10240035
I0
I1
tp475
a(I10240035
I1
I1
tp476
a(I10277115
I0
I1
tp477
a(I10296422
I1
I0
tp478
a(I10330898
I0
I1
tp479
a(I10338000
I0
I0
tp480
a(I10389260
I1
I0
tp481
a(I10389260
I2
I1
tp482
a(I10389260
I3
I0
tp483
a(I10389260
I4
I1
tp484
a(I10423479
I0
I1
tp485
a(I10423479
I1
I0
tp486
a(I10477017
I0
I1
tp487
a(I10477017
I1
I1
tp488
a(I10532323
I1
I0
tp489
a(I10666965
I1
I0
tp490
a(I10666965
I2
I0
tp491
a(I10666965
I3
I0
tp492
a(I10666965
I4
I0
tp493
a(I10666965
I6
I0
tp494
a(I10694376
I0
I1
tp495
a(I10694376
I1
I1
tp496
a(I10694376
I2
I1
tp497
a(I10777996
I1
I0
tp498
a(I10777996
I3
I0
tp499
a(I10787043
I0
I1
tp500
a(I10787043
I1
I0
tp501
a(I10797333
I1
I1
tp502
a(I10860452
I0
I0
tp503
a(I10919401
I0
I1
tp504
a(I10979035
I1
I0
tp505
a(I10993189
I0
I1
tp506
a(I10993546
I1
I0
tp507
a(I10993546
I2
I0
tp508
a(I10993546
I3
I0
tp509
a(I10999396
I1
I1
tp510
a(I11019847
I1
I1
tp511
a(I11033340
I0
I1
tp512
a(I11033340
I1
I1
tp513
a(I11097839
I0
I1
tp514
a(I11114638
I0
I1
tp515
a(I11114638
I1
I0
tp516
a(I11114638
I2
I0
tp517
a(I11116129
I0
I1
tp518
a(I11117622
I0
I1
tp519
a(I11119197
I0
I0
tp520
a(I11119197
I4
I0
tp521
a(I11135522
I0
I1
tp522
a(I11168749
I1
I1
tp523
a(I11215684
I1
I1
tp524
a(I11215684
I3
I0
tp525
a(I11227924
I0
I1
tp526
a(I11227924
I2
I0
tp527
a(I11260900
I0
I1
tp528
a(I11260900
I1
I1
tp529
a(I11282433
I0
I1
tp530
a(I11292524
I2
I1
tp531
a(I11308438
I0
I1
tp532
a(I11329936
I1
I1
tp533
a(I11350686
I1
I1
tp534
a(I11350686
I3
I1
tp535
a(I11350686
I4
I1
tp536
a(I11363669
I0
I1
tp537
a(I11363669
I2
I0
tp538
a(I11396151
I1
I0
tp539
a(I11404664
I0
I1
tp540
a(I11419308
I0
I0
tp541
a(I11419308
I2
I0
tp542
a(I11419793
I1
I0
tp543
a(I11426911
I1
I1
tp544
a(I11436797
I2
I0
tp545
a(I11436797
I3
I0
tp546
a(I11441696
I1
I1
tp547
a(I11445551
I1
I0
tp548
a(I11456664
I1
I1
tp549
a(I11463090
I0
I1
tp550
a(I11468551
I0
I1
tp551
a(I11468551
I1
I0
tp552
a(I11468551
I2
I0
tp553
a(I11480527
I0
I1
tp554
a(I11480527
I2
I1
tp555
a(I11480527
I3
I1
tp556
a(I11495713
I0
I1
tp557
a(I11495713
I1
I0
tp558
a(I11510950
I0
I1
tp559
a(I11510950
I1
I1
tp560
a(I11568694
I1
I1
tp561
a(I11696995
I4
I0
tp562
a(I11753269
I0
I0
tp563
a(I11753269
I1
I0
tp564
a(I11753269
I2
I0
tp565
a(I11762700
I0
I1
tp566
a(I11769527
I0
I1
tp567
a(I11769527
I1
I1
tp568
a(I11783678
I2
I0
tp569
a(I11783678
I3
I0
tp570
a(I11783678
I4
I1
tp571
a(I11793666
I0
I1
tp572
a(I11814210
I2
I0
tp573
a(I11822599
I1
I1
tp574
a(I11833448
I0
I1
tp575
a(I11833448
I1
I1
tp576
a(I11844855
I0
I1
tp577
a(I11844855
I2
I1
tp578
a(I11847584
I1
I1
tp579
a(I11852951
I1
I0
tp580
a(I11852951
I2
I0
tp581
a(I11900470
I0
I1
tp582
a(I11900470
I1
I1
tp583
a(I11900470
I2
I0
tp584
a(I11912188
I0
I0
tp585
a(I11912188
I3
I0
tp586
a(I11960289
I0
I1
tp587
a(I11960289
I2
I1
tp588
a(I11969118
I1
I1
tp589
a(I12013073
I1
I1
tp590
a(I12050795
I2
I1
tp591
a(I12063841
I0
I1
tp592
a(I12063841
I1
I1
tp593
a(I12063841
I2
I1
tp594
a(I12085307
I0
I1
tp595
a(I12085307
I1
I1
tp596
a(I12088243
I1
I1
tp597
a(I12151979
I0
I0
tp598
a(I12151979
I1
I0
tp599
a(I12160776
I0
I1
tp600
a(I12160776
I1
I0
tp601
a(I12221037
I0
I1
tp602
a(I12221037
I1
I1
tp603
a(I12248899
I1
I1
tp604
a(I12250195
I0
I0
tp605
a(I12251993
I1
I0
tp606
a(I12265411
I0
I1
tp607
a(I12265411
I1
I1
tp608
a(I12335438
I1
I0
tp609
a(I12335438
I4
I0
tp610
a(I12366390
I2
I1
tp611
a(I12386646
I1
I1
tp612
a(I12407247
I0
I1
tp613
a(I12419421
I0
I0
tp614
a(I12419421
I1
I0
tp615
a(I12419421
I2
I1
tp616
a(I12419854
I1
I0
tp617
a(I12456897
I0
I1
tp618
a(I12463628
I0
I1
tp619
a(I12463628
I2
I0
tp620
a(I12463628
I3
I0
tp621
a(I12498046
I0
I1
tp622
a(I12498046
I1
I0
tp623
a(I12527563
I0
I0
tp624
a(I12527563
I1
I0
tp625
a(I12530027
I0
I1
tp626
a(I12530027
I1
I0
tp627
a(I12579635
I0
I0
tp628
a(I12590682
I1
I0
tp629
a(I12698945
I0
I1
tp630
a(I12698945
I1
I1
tp631
a(I12698945
I2
I1
tp632
a(I12712480
I1
I0
tp633
a(I12713468
I1
I1
tp634
a(I12730070
I0
I1
tp635
a(I12730070
I1
I1
tp636
a(I12773500
I1
I0
tp637
a(I12783579
I3
I0
tp638
a(I12783579
I4
I0
tp639
a(I12815194
I0
I1
tp640
a(I12815194
I1
I1
tp641
a(I12818621
I0
I1
tp642
a(I12818621
I1
I0
tp643
a(I12823575
I1
I1
tp644
a(I12839031
I1
I1
tp645
a(I12849213
I1
I1
tp646
a(I12849213
I2
I1
tp647
a(I12870094
I0
I1
tp648
a(I12879550
I0
I1
tp649
a(I12899727
I0
I1
tp650
a(I12899727
I1
I1
tp651
a(I12951673
I0
I0
tp652
a(I12989520
I1
I1
tp653
a(I13003656
I1
I1
tp654
a(I13024512
I2
I1
tp655
a(I13054785
I0
I1
tp656
a(I13054785
I3
I0
tp657
a(I13054785
I4
I1
tp658
a(I13069202
I0
I1
tp659
a(I13096793
I0
I1
tp660
a(I13103114
I0
I1
tp661
a(I13110356
I0
I0
tp662
a(I13110356
I1
I0
tp663
a(I13110356
I2
I0
tp664
a(I13110356
I3
I0
tp665
a(I13128635
I1
I1
tp666
a(I13144230
I0
I0
tp667
a(I13159227
I0
I1
tp668
a(I13159227
I1
I1
tp669
a(I13173833
I0
I1
tp670
a(I13173833
I1
I1
tp671
a(I13183568
I0
I0
tp672
a(I13230133
I0
I1
tp673
a(I13234818
I3
I0
tp674
a(I13237623
I1
I1
tp675
a(I13241518
I0
I0
tp676
a(I13249903
I0
I1
tp677
a(I13277973
I0
I1
tp678
a(I13308281
I0
I1
tp679
a(I13308281
I1
I1
tp680
a(I13345583
I0
I1
tp681
a(I13345583
I1
I1
tp682
a(I13377997
I0
I0
tp683
a(I13406949
I0
I1
tp684
a(I13410246
I1
I1
tp685
a(I13419701
I1
I1
tp686
a(I13427389
I0
I1
tp687
a(I13427389
I1
I1
tp688
a(I13474207
I0
I1
tp689
a(I13474207
I1
I1
tp690
a(I13474207
I2
I1
tp691
a(I13523272
I0
I0
tp692
a(I13523272
I2
I0
tp693
a(I13537347
I0
I1
tp694
a(I13537347
I1
I1
tp695
a(I13545617
I1
I1
tp696
a(I13584250
I0
I1
tp697
a(I13584250
I1
I0
tp698
a(I13595333
I0
I0
tp699
a(I13595333
I1
I0
tp700
a(I13595333
I3
I0
tp701
a(I13595333
I4
I0
tp702
a(I13618078
I1
I1
tp703
a(I13632163
I1
I1
tp704
a(I13678718
I0
I1
tp705
a(I13758033
I1
I1
tp706
a(I13771275
I0
I1
tp707
a(I13771275
I1
I1
tp708
a(I13789442
I0
I1
tp709
a(I13789442
I1
I1
tp710
a(I13791170
I0
I1
tp711
a(I13791170
I3
I1
tp712
a(I13832037
I0
I1
tp713
a(I13832037
I1
I1
tp714
a(I13840468
I0
I0
tp715
a(I13840468
I1
I0
tp716
a(I13840468
I3
I0
tp717
a(I13840468
I4
I0
tp718
a(I13840468
I5
I0
tp719
a(I13840468
I6
I0
tp720
a(I13840468
I8
I0
tp721
a(I13862099
I1
I1
tp722
a(I13901809
I0
I1
tp723
a(I13901809
I1
I0
tp724
a(I13967474
I1
I1
tp725
a(I13967474
I2
I1
tp726
a(I14056134
I1
I0
tp727
a(I14091654
I1
I1
tp728
a(I14124763
I0
I1
tp729
a(I14124763
I1
I1
tp730
a(I14159629
I2
I0
tp731
a(I14168940
I0
I0
tp732
a(I14206236
I1
I1
tp733
a(I14211346
I0
I1
tp734
a(I14211346
I1
I1
tp735
a(I14211346
I2
I1
tp736
a(I14211346
I3
I0
tp737
a(I14253673
I1
I0
tp738
a(I14285554
I1
I0
tp739
a(I14286714
I0
I1
tp740
a(I14286714
I1
I1
tp741
a(I14296002
I2
I0
tp742
a(I14296002
I3
I0
tp743
a(I14296002
I4
I1
tp744
a(I14313834
I1
I0
tp745
a(I14345171
I1
I0
tp746
a(I14355527
I0
I0
tp747
a(I14366759
I1
I1
tp748
a(I14372302
I1
I1
tp749
a(I14374677
I0
I1
tp750
a(I14374677
I1
I1
tp751
a(I14385741
I1
I1
tp752
a(I14400023
I1
I0
tp753
a(I14442822
I0
I0
tp754
a(I14446303
I0
I1
tp755
a(I14446303
I1
I1
tp756
a(I14446303
I2
I1
tp757
a(I14469652
I1
I0
tp758
a(I14469652
I2
I0
tp759
a(I14469652
I3
I0
tp760
a(I14469652
I4
I0
tp761
a(I14469652
I6
I0
tp762
a(I14479213
I0
I1
tp763
a(I14479213
I1
I1
tp764
a(I14482625
I1
I1
tp765
a(I14501440
I0
I1
tp766
a(I14501440
I1
I1
tp767
a(I14501440
I2
I1
tp768
a(I14513314
I0
I1
tp769
a(I14537280
I0
I1
tp770
a(I14540736
I0
I1
tp771
a(I14540917
I0
I1
tp772
a(I14540917
I1
I1
tp773
a(I14565788
I0
I1
tp774
a(I14565788
I1
I0
tp775
a(I14565788
I2
I1
tp776
a(I14610658
I0
I1
tp777
a(I14636287
I0
I1
tp778
a(I14636287
I1
I0
tp779
a(I14636901
I0
I1
tp780
a(I14672688
I0
I1
tp781
a(I14672688
I1
I1
tp782
a(I14675304
I1
I1
tp783
a(I14675304
I2
I1
tp784
a(I14730469
I0
I0
tp785
a(I14730469
I1
I1
tp786
a(I14730469
I2
I0
tp787
a(I14732938
I0
I1
tp788
a(I14732938
I1
I1
tp789
a(I14732938
I2
I1
tp790
a(I14732938
I4
I0
tp791
a(I14746540
I1
I0
tp792
a(I14790098
I0
I1
tp793
a(I14790098
I1
I1
tp794
a(I14830410
I1
I0
tp795
a(I14838374
I0
I0
tp796
a(I14838374
I2
I0
tp797
a(I14841239
I0
I0
tp798
a(I14841239
I1
I0
tp799
a(I14849316
I1
I1
tp800
a(I14849316
I2
I1
tp801
a(I14856663
I1
I1
tp802
a(I14856663
I2
I0
tp803
a(I14860852
I1
I0
tp804
a(I14866797
I0
I1
tp805
a(I14866797
I1
I1
tp806
a(I14903899
I0
I1
tp807
a(I14903899
I1
I1
tp808
a(I14930630
I0
I1
tp809
a(I14930630
I1
I0
tp810
a(I14952911
I0
I0
tp811
a(I14961787
I0
I1
tp812
a(I14961787
I1
I0
tp813
a(I14964462
I1
I1
tp814
a(I14965566
I0
I0
tp815
a(I14965566
I1
I1
tp816
a(I14965566
I2
I0
tp817
a(I14965566
I3
I1
tp818
a(I15034144
I1
I1
tp819
a(I15100101
I0
I1
tp820
a(I15100101
I1
I0
tp821
a(I15108987
I0
I1
tp822
a(I15108987
I1
I1
tp823
a(I15117826
I1
I0
tp824
a(I15117826
I3
I0
tp825
a(I15117826
I4
I0
tp826
a(I15117826
I5
I1
tp827
a(I15117826
I6
I1
tp828
a(I15150057
I0
I1
tp829
a(I15150057
I1
I1
tp830
a(I15203058
I0
I1
tp831
a(I15203058
I1
I0
tp832
a(I15237740
I1
I1
tp833
a(I15243399
I1
I0
tp834
a(I15243399
I2
I1
tp835
a(I15264563
I0
I1
tp836
a(I15264563
I1
I1
tp837
a(I15302356
I0
I0
tp838
a(I15302356
I3
I0
tp839
a(I15357576
I1
I0
tp840
a(I15376335
I1
I0
tp841
a(I15376335
I2
I1
tp842
a(I15387808
I0
I1
tp843
a(I15387808
I1
I1
tp844
a(I15400897
I0
I1
tp845
a(I15400897
I1
I1
tp846
a(I15414398
I2
I0
tp847
a(I15420689
I0
I0
tp848
a(I15436509
I1
I0
tp849
a(I15445216
I0
I1
tp850
a(I15448705
I0
I1
tp851
a(I15448705
I1
I1
tp852
a(I15512015
I1
I0
tp853
a(I15512015
I2
I1
tp854
a(I15532084
I0
I0
tp855
a(I15543977
I1
I0
tp856
a(I15543977
I2
I0
tp857
a(I15616278
I0
I1
tp858
a(I15616638
I0
I1
tp859
a(I15621609
I0
I1
tp860
a(I15622474
I0
I0
tp861
a(I15627299
I0
I1
tp862
a(I15627299
I1
I1
tp863
a(I15627299
I2
I0
tp864
a(I15706765
I1
I1
tp865
a(I15706765
I2
I1
tp866
a(I15736503
I0
I1
tp867
a(I15736503
I1
I0
tp868
a(I15742348
I0
I1
tp869
a(I15742348
I1
I1
tp870
a(I15743183
I0
I1
tp871
a(I15743183
I1
I0
tp872
a(I15758509
I0
I1
tp873
a(I15758509
I1
I0
tp874
a(I15808243
I1
I1
tp875
a(I15834569
I1
I0
tp876
a(I15836482
I0
I1
tp877
a(I15836482
I1
I0
tp878
a(I15872394
I0
I0
tp879
a(I15872394
I2
I0
tp880
a(I15872394
I5
I0
tp881
a(I15948208
I0
I1
tp882
a(I15948208
I1
I0
tp883
a(I15964439
I1
I0
tp884
a(I16036991
I0
I1
tp885
a(I16036991
I1
I1
tp886
a(I16053215
I1
I1
tp887
a(I16053425
I1
I1
tp888
a(I16053425
I2
I0
tp889
a(I16093468
I0
I0
tp890
a(I16093468
I1
I0
tp891
a(I16136119
I2
I0
tp892
a(I16143769
I0
I1
tp893
a(I16184493
I1
I1
tp894
a(I16186786
I2
I1
tp895
a(I16212126
I1
I1
tp896
a(I16216129
I0
I1
tp897
a(I16216129
I1
I0
tp898
a(I16223233
I2
I0
tp899
a(I16291075
I0
I1
tp900
a(I16291075
I1
I1
tp901
a(I16330159
I0
I1
tp902
a(I16335925
I0
I1
tp903
a(I16426039
I0
I1
tp904
a(I16426039
I1
I1
tp905
a(I16426094
I1
I1
tp906
a(I16442686
I0
I1
tp907
a(I16487093
I1
I0
tp908
a(I16490625
I0
I1
tp909
a(I16507239
I0
I0
tp910
a(I16507239
I1
I0
tp911
a(I16507239
I2
I0
tp912
a(I16507239
I4
I0
tp913
a(I16550767
I0
I1
tp914
a(I16550767
I1
I1
tp915
a(I16668803
I0
I1
tp916
a(I16668803
I1
I0
tp917
a(I16688990
I0
I0
tp918
a(I16688990
I1
I0
tp919
a(I16688990
I3
I0
tp920
a(I16756054
I0
I1
tp921
a(I16797418
I0
I0
tp922
a(I16797418
I2
I1
tp923
a(I16799445
I0
I1
tp924
a(I16799445
I1
I0
tp925
a(I16874590
I1
I1
tp926
a(I16874590
I2
I1
tp927
a(I16877276
I0
I1
tp928
a(I16877276
I2
I1
tp929
a(I16887108
I1
I1
tp930
a(I16895364
I1
I0
tp931
a(I16895364
I2
I1
tp932
a(I16914206
I0
I1
tp933
a(I16914206
I1
I1
tp934
a(I16962915
I1
I0
tp935
a(I17017125
I0
I1
tp936
a(I17017125
I1
I0
tp937
a(I17017125
I4
I0
tp938
a(I17025457
I1
I1
tp939
a(I17043777
I0
I1
tp940
a(I17043777
I1
I0
tp941
a(I17044086
I0
I1
tp942
a(I17057129
I0
I0
tp943
a(I17070859
I0
I1
tp944
a(I17070859
I1
I1
tp945
a(I17073134
I0
I1
tp946
a(I17099089
I1
I1
tp947
a(I17099697
I0
I1
tp948
a(I17102375
I1
I1
tp949
a(I17113532
I0
I1
tp950
a(I17163648
I1
I0
tp951
a(I17255338
I0
I1
tp952
a(I17255338
I1
I0
tp953
a(I17265080
I0
I0
tp954
a(I17325149
I2
I1
tp955
a(I17325149
I3
I0
tp956
a(I17325149
I6
I0
tp957
a(I17325149
I7
I0
tp958
a(I17325149
I8
I0
tp959
a(I17325149
I9
I0
tp960
a(I17325149
I10
I0
tp961
a(I17340363
I1
I0
tp962
a(I17340363
I2
I0
tp963
a(I17352572
I1
I0
tp964
a(I17352572
I2
I0
tp965
a(I17352572
I5
I0
tp966
a(I17524409
I0
I0
tp967
a(I17524409
I1
I1
tp968
a(I17535389
I2
I0
tp969
a(I17558290
I1
I0
tp970
a(I17558290
I3
I0
tp971
a(I17558290
I4
I0
tp972
a(I17598953
I0
I1
tp973
a(I17665628
I1
I0
tp974
a(I17670284
I1
I0
tp975
a(I17703008
I0
I1
tp976
a(I17703008
I1
I1
tp977
a(I17703863
I0
I1
tp978
a(I17703863
I1
I1
tp979
a(I17707945
I0
I1
tp980
a(I17707945
I1
I1
tp981
a(I17750801
I0
I1
tp982
a(I17750801
I1
I1
tp983
a(I17810221
I1
I1
tp984
a(I17833022
I0
I1
tp985
a(I17833022
I1
I1
tp986
a(I17851492
I0
I1
tp987
a(I17875720
I0
I1
tp988
a(I17890157
I1
I1
tp989
a(I17890157
I2
I1
tp990
a(I17910415
I2
I0
tp991
a(I17925232
I0
I0
tp992
a(I17925232
I1
I0
tp993
a(I18001322
I0
I1
tp994
a(I18001322
I1
I1
tp995
a(I18020825
I0
I1
tp996
a(I18020825
I3
I0
tp997
a(I18105224
I1
I0
tp998
a(I18107553
I0
I1
tp999
a(I18107553
I1
I0
tp1000
a(I18146788
I1
I1
tp1001
a(I18186212
I1
I1
tp1002
a(I18187989
I2
I1
tp1003
a(I18289563
I1
I1
tp1004
a(I18320028
I0
I1
tp1005
a(I18320028
I1
I1
tp1006
a(I18359263
I1
I1
tp1007
a(I18377746
I0
I1
tp1008
a(I18377746
I1
I1
tp1009
a(I18404055
I0
I1
tp1010
a(I18404055
I2
I1
tp1011
a(I18404055
I7
I0
tp1012
a(I18404055
I10
I0
tp1013
a(I18410600
I1
I1
tp1014
a(I18415438
I1
I1
tp1015
a(I18415438
I2
I0
tp1016
a(I18420123
I0
I1
tp1017
a(I18420123
I1
I1
tp1018
a(I18477582
I1
I0
tp1019
a(I18486580
I0
I1
tp1020
a(I18499562
I0
I1
tp1021
a(I18513029
I0
I1
tp1022
a(I18547311
I2
I1
tp1023
a(I18570414
I1
I0
tp1024
a(I18575984
I0
I1
tp1025
a(I18575984
I1
I1
tp1026
a(I18613117
I0
I0
tp1027
a(I18613117
I1
I0
tp1028
a(I18644056
I1
I1
tp1029
a(I18651768
I1
I0
tp1030
a(I18651768
I2
I0
tp1031
a(I18669731
I2
I1
tp1032
a(I18708680
I0
I0
tp1033
a(I18708680
I1
I0
tp1034
a(I18724492
I0
I0
tp1035
a(I18724492
I1
I1
tp1036
a(I18737626
I0
I0
tp1037
a(I18747853
I1
I1
tp1038
a(I18749306
I0
I0
tp1039
a(I18749306
I1
I0
tp1040
a(I18749306
I2
I0
tp1041
a(I18749306
I5
I0
tp1042
a(I18757944
I0
I1
tp1043
a(I18777437
I2
I0
tp1044
a(I18799810
I0
I1
tp1045
a(I18799810
I1
I1
tp1046
a(I18852505
I0
I1
tp1047
a(I18858779
I0
I1
tp1048
a(I18858779
I5
I0
tp1049
a(I18865590
I1
I1
tp1050
a(I18873251
I0
I0
tp1051
a(I18873251
I1
I0
tp1052
a(I18885583
I1
I1
tp1053
a(I18904109
I1
I0
tp1054
a(I18920393
I0
I0
tp1055
a(I18920393
I5
I0
tp1056
a(I18922620
I1
I1
tp1057
a(I18922620
I2
I1
tp1058
a(I18992088
I1
I1
tp1059
a(I19006430
I0
I1
tp1060
a(I19006430
I1
I1
tp1061
a(I19041847
I1
I0
tp1062
a(I19053225
I1
I0
tp1063
a(I19068044
I1
I1
tp1064
a(I19073500
I0
I1
tp1065
a(I19101688
I1
I1
tp1066
a(I19155321
I1
I0
tp1067
a(I19163959
I0
I1
tp1068
a(I19163959
I1
I1
tp1069
a(I19181164
I2
I1
tp1070
a(I19189050
I0
I1
tp1071
a(I19189050
I2
I1
tp1072
a(I19211707
I1
I1
tp1073
a(I19270316
I0
I0
tp1074
a(I19270316
I2
I0
tp1075
a(I19270316
I3
I0
tp1076
a(I19270491
I1
I0
tp1077
a(I19270491
I4
I0
tp1078
a(I19279889
I0
I1
tp1079
a(I19279889
I1
I1
tp1080
a(I19307842
I1
I1
tp1081
a(I19329816
I1
I0
tp1082
a(I19353473
I0
I0
tp1083
a(I19353473
I1
I0
tp1084
a(I19356906
I0
I0
tp1085
a(I19359464
I0
I1
tp1086
a(I19408757
I1
I0
tp1087
a(I19447701
I0
I1
tp1088
a(I19447701
I1
I1
tp1089
a(I19459274
I0
I1
tp1090
a(I19459274
I1
I0
tp1091
a(I19532288
I0
I0
tp1092
a(I19532288
I1
I1
tp1093
a(I19532288
I3
I1
tp1094
a(I19577349
I0
I1
tp1095
a(I19577349
I1
I0
tp1096
a(I19582011
I0
I1
tp1097
a(I19582011
I1
I1
tp1098
a(I19645073
I1
I1
tp1099
a(I19663813
I1
I1
tp1100
a(I19707228
I1
I1
tp1101
a(I19716510
I0
I1
tp1102
a(I19716510
I1
I1
tp1103
a(I19718193
I0
I1
tp1104
a(I19748723
I1
I1
tp1105
a(I19752084
I1
I0
tp1106
a(I19765962
I1
I1
tp1107
a(I19835090
I0
I0
tp1108
a(I19835090
I1
I0
tp1109
a(I19835090
I2
I0
tp1110
a(I19837655
I0
I0
tp1111
a(I19837655
I1
I0
tp1112
a(I19866409
I1
I0
tp1113
a(I19866409
I2
I1
tp1114
a(I19866409
I4
I1
tp1115
a(I19872492
I1
I1
tp1116
a(I19902526
I0
I0
tp1117
a(I19902526
I1
I0
tp1118
a(I19902526
I2
I0
tp1119
a(I19902526
I3
I0
tp1120
a(I19939624
I1
I1
tp1121
a(I19941944
I0
I1
tp1122
a(I19941944
I1
I0
tp1123
a(I19985833
I0
I0
tp1124
a(I19998376
I0
I1
tp1125
a(I19998376
I1
I0
tp1126
a(I20028832
I0
I0
tp1127
a(I20049984
I0
I1
tp1128
a(I20049984
I1
I0
tp1129
a(I20062208
I0
I1
tp1130
a(I20062208
I1
I1
tp1131
a(I20072250
I0
I0
tp1132
a(I20096624
I0
I1
tp1133
a(I20096624
I1
I1
tp1134
a(I20146719
I0
I1
tp1135
a(I20146719
I1
I1
tp1136
a(I20147303
I0
I1
tp1137
a(I20197566
I0
I0
tp1138
a(I20197566
I1
I0
tp1139
a(I20197566
I2
I0
tp1140
a(I20197566
I4
I0
tp1141
a(I20197566
I5
I0
tp1142
a(I20197566
I8
I0
tp1143
a(I20250357
I1
I0
tp1144
a(I20250357
I2
I0
tp1145
a(I20299075
I1
I0
tp1146
a(I20304400
I0
I1
tp1147
a(I20304400
I1
I1
tp1148
a(I20358637
I0
I0
tp1149
a(I20358637
I3
I0
tp1150
a(I20371389
I0
I1
tp1151
a(I20371389
I1
I0
tp1152
a(I20401247
I1
I1
tp1153
a(I20401247
I2
I0
tp1154
a(I20435406
I1
I0
tp1155
a(I20435406
I3
I0
tp1156
a(I20454604
I1
I1
tp1157
a(I20510051
I0
I1
tp1158
a(I20510051
I3
I1
tp1159
a(I20519532
I0
I0
tp1160
a(I20519532
I1
I0
tp1161
a(I20519532
I3
I0
tp1162
a(I20546039
I0
I1
tp1163
a(I20546039
I1
I1
tp1164
a(I20546039
I2
I1
tp1165
a(I20551358
I0
I0
tp1166
a(I20551358
I2
I0
tp1167
a(I20637482
I1
I1
tp1168
a(I20643084
I0
I0
tp1169
a(I20659137
I1
I1
tp1170
a(I20661535
I0
I1
tp1171
a(I20707736
I1
I0
tp1172
a(I20757884
I1
I0
tp1173
a(I20757884
I2
I0
tp1174
a(I20783264
I1
I1
tp1175
a(I20792891
I0
I1
tp1176
a(I20792891
I1
I0
tp1177
a(I20792891
I3
I1
tp1178
a(I20830315
I0
I1
tp1179
a(I20838921
I0
I1
tp1180
a(I20838921
I2
I0
tp1181
a(I20838921
I3
I0
tp1182
a(I20838921
I6
I0
tp1183
a(I20838921
I7
I0
tp1184
a(I20935221
I0
I1
tp1185
a(I20935221
I3
I0
tp1186
a(I20935240
I0
I0
tp1187
a(I20954662
I0
I1
tp1188
a(I20954662
I1
I1
tp1189
a(I21075815
I0
I1
tp1190
a(I21075815
I1
I1
tp1191
a(I21136618
I0
I0
tp1192
a(I21167225
I1
I0
tp1193
a(I21234177
I1
I0
tp1194
a(I21251963
I0
I1
tp1195
a(I21251963
I1
I1
tp1196
a(I21259677
I0
I0
tp1197
a(I21270528
I1
I1
tp1198
a(I21280605
I0
I0
tp1199
a(I21280605
I1
I0
tp1200
a(I21281481
I0
I1
tp1201
a(I21281481
I1
I1
tp1202
a(I21286642
I1
I1
tp1203
a(I21286804
I0
I1
tp1204
a(I21302307
I1
I0
tp1205
a(I21302307
I3
I0
tp1206
a(I21311393
I0
I0
tp1207
a(I21313983
I2
I1
tp1208
a(I21352556
I0
I1
tp1209
a(I21352556
I1
I1
tp1210
a(I21367807
I0
I1
tp1211
a(I21367807
I1
I1
tp1212
a(I21384239
I1
I1
tp1213
a(I21389431
I2
I1
tp1214
a(I21389431
I3
I1
tp1215
a(I21400367
I0
I1
tp1216
a(I21409033
I0
I1
tp1217
a(I21424132
I1
I0
tp1218
a(I21438881
I0
I0
tp1219
a(I21528762
I0
I1
tp1220
a(I21532604
I0
I1
tp1221
a(I21535167
I0
I1
tp1222
a(I21540219
I0
I1
tp1223
a(I21546809
I3
I0
tp1224
a(I21613270
I0
I1
tp1225
a(I21613270
I1
I1
tp1226
a(I21622435
I0
I1
tp1227
a(I21626432
I0
I1
tp1228
a(I21626432
I1
I1
tp1229
a(I21640927
I0
I1
tp1230
a(I21669936
I1
I1
tp1231
a(I21692871
I0
I1
tp1232
a(I21692871
I1
I1
tp1233
a(I21731573
I0
I1
tp1234
a(I21731573
I1
I1
tp1235
a(I21740326
I0
I1
tp1236
a(I21740326
I1
I0
tp1237
a(I21746336
I0
I1
tp1238
a(I21746336
I1
I1
tp1239
a(I21765911
I0
I1
tp1240
a(I21832842
I0
I1
tp1241
a(I21832842
I1
I0
tp1242
a(I21832842
I4
I1
tp1243
a(I21835289
I0
I0
tp1244
a(I21835289
I3
I0
tp1245
a(I21841623
I0
I1
tp1246
a(I21869166
I1
I0
tp1247
a(I21875568
I1
I1
tp1248
a(I21950759
I0
I0
tp1249
a(I21956650
I0
I1
tp1250
a(I21956650
I1
I1
tp1251
a(I21969425
I0
I1
tp1252
a(I21977220
I1
I0
tp1253
a(I22021194
I0
I1
tp1254
a(I22021194
I1
I1
tp1255
a(I22040663
I1
I1
tp1256
a(I22052942
I1
I1
tp1257
a(I22055558
I0
I0
tp1258
a(I22055558
I1
I0
tp1259
a(I22134638
I1
I1
tp1260
a(I22180392
I1
I1
tp1261
a(I22184025
I0
I1
tp1262
a(I22184025
I2
I1
tp1263
a(I22228967
I1
I0
tp1264
a(I22228967
I2
I1
tp1265
a(I22232282
I0
I1
tp1266
a(I22232282
I1
I1
tp1267
a(I22258390
I1
I0
tp1268
a(I22311646
I0
I1
tp1269
a(I22311646
I1
I1
tp1270
a(I22348948
I0
I1
tp1271
a(I22348948
I1
I1
tp1272
a(I22366810
I0
I0
tp1273
a(I22366810
I1
I0
tp1274
a(I22366810
I3
I0
tp1275
a(I22366810
I4
I0
tp1276
a(I22390896
I1
I1
tp1277
a(I22393469
I0
I1
tp1278
a(I22393469
I2
I1
tp1279
a(I22399836
I1
I1
tp1280
a(I22452123
I2
I0
tp1281
a(I22452123
I3
I0
tp1282
a(I22468717
I0
I1
tp1283
a(I22512709
I2
I1
tp1284
a(I22537662
I0
I1
tp1285
a(I22537662
I1
I1
tp1286
a(I22544486
I0
I1
tp1287
a(I22583760
I2
I0
tp1288
a(I22622841
I2
I0
tp1289
a(I22629022
I0
I0
tp1290
a(I22629022
I2
I0
tp1291
a(I22668248
I0
I0
tp1292
a(I22668248
I1
I0
tp1293
a(I22668248
I2
I0
tp1294
a(I22668248
I3
I0
tp1295
a(I22668248
I4
I0
tp1296
a(I22668248
I5
I0
tp1297
a(I22668248
I7
I0
tp1298
a(I22668248
I8
I0
tp1299
a(I22668248
I9
I0
tp1300
a(I22697790
I0
I1
tp1301
a(I22697790
I1
I1
tp1302
a(I22724852
I0
I1
tp1303
a(I22738933
I2
I0
tp1304
a(I22742235
I1
I0
tp1305
a(I22783242
I0
I1
tp1306
a(I22861123
I1
I0
tp1307
a(I22872278
I1
I1
tp1308
a(I22876321
I0
I1
tp1309
a(I22876321
I1
I1
tp1310
a(I22909997
I0
I1
tp1311
a(I22909997
I1
I1
tp1312
a(I22910039
I0
I1
tp1313
a(I22914453
I0
I0
tp1314
a(I22914453
I1
I0
tp1315
a(I22914453
I2
I0
tp1316
a(I22959571
I0
I1
tp1317
a(I22959571
I1
I1
tp1318
a(I22963994
I1
I1
tp1319
a(I22986618
I1
I1
tp1320
a(I23034365
I0
I1
tp1321
a(I23091177
I0
I1
tp1322
a(I23091177
I1
I1
tp1323
a(I23096845
I0
I1
tp1324
a(I23096845
I1
I0
tp1325
a(I23106523
I0
I1
tp1326
a(I23116249
I1
I0
tp1327
a(I23116249
I2
I0
tp1328
a(I23129852
I0
I0
tp1329
a(I23129852
I1
I0
tp1330
a(I23146750
I1
I1
tp1331
a(I23151081
I0
I1
tp1332
a(I23151081
I1
I1
tp1333
a(I23151241
I0
I1
tp1334
a(I23166266
I0
I0
tp1335
a(I23166266
I1
I0
tp1336
a(I23166266
I2
I0
tp1337
a(I23166266
I3
I0
tp1338
a(I23176321
I1
I0
tp1339
a(I23225721
I1
I0
tp1340
a(I23303779
I1
I0
tp1341
a(I23349694
I0
I1
tp1342
a(I23369574
I0
I1
tp1343
a(I23400658
I0
I0
tp1344
a(I23400658
I1
I1
tp1345
a(I23470309
I0
I1
tp1346
a(I23470309
I1
I1
tp1347
a(I23478919
I0
I1
tp1348
a(I23507472
I0
I1
tp1349
a(I23507472
I1
I0
tp1350
a(I23552848
I0
I1
tp1351
a(I23552848
I1
I1
tp1352
a(I23594298
I0
I1
tp1353
a(I23594298
I1
I0
tp1354
a(I23626176
I0
I0
tp1355
a(I23626176
I1
I0
tp1356
a(I23626176
I2
I1
tp1357
a(I23642201
I1
I1
tp1358
a(I23676371
I0
I0
tp1359
a(I23676371
I1
I0
tp1360
a(I23676371
I2
I0
tp1361
a(I23705421
I1
I1
tp1362
a(I23768482
I0
I0
tp1363
a(I23768482
I1
I0
tp1364
a(I23803359
I0
I1
tp1365
a(I23803359
I2
I0
tp1366
a(I23803359
I5
I0
tp1367
a(I23807485
I1
I1
tp1368
a(I23807485
I2
I1
tp1369
a(I23821632
I1
I1
tp1370
a(I23828906
I0
I1
tp1371
a(I23892604
I0
I1
tp1372
a(I23892604
I1
I1
tp1373
a(I23907556
I0
I0
tp1374
a(I23907556
I2
I0
tp1375
a(I23908145
I2
I0
tp1376
a(I23924244
I0
I1
tp1377
a(I23948815
I0
I1
tp1378
a(I23950035
I1
I1
tp1379
a(I23954139
I0
I1
tp1380
a(I23959544
I0
I0
tp1381
a(I23959544
I3
I0
tp1382
a(I23959544
I4
I0
tp1383
a(I23959544
I5
I0
tp1384
a(I23963860
I1
I0
tp1385
a(I23963860
I3
I0
tp1386
a(I23963860
I4
I0
tp1387
a(I23992536
I0
I1
tp1388
a(I23997222
I0
I0
tp1389
a(I24012213
I1
I0
tp1390
a(I24035933
I1
I0
tp1391
a(I24035933
I3
I0
tp1392
a(I24040926
I0
I1
tp1393
a(I24040926
I1
I1
tp1394
a(I24082669
I0
I0
tp1395
a(I24082669
I1
I0
tp1396
a(I24116066
I2
I0
tp1397
a(I24194784
I0
I1
tp1398
a(I24194784
I2
I1
tp1399
a(I24207240
I0
I1
tp1400
a(I24207240
I1
I0
tp1401
a(I24207240
I2
I0
tp1402
a(I24275420
I0
I1
tp1403
a(I24275420
I1
I1
tp1404
a(I24287463
I0
I0
tp1405
a(I24291644
I0
I0
tp1406
a(I24291644
I2
I0
tp1407
a(I24310683
I0
I1
tp1408
a(I24310683
I2
I1
tp1409
a(I24316425
I1
I1
tp1410
a(I24342739
I1
I0
tp1411
a(I24372541
I0
I0
tp1412
a(I24375773
I0
I1
tp1413
a(I24375773
I1
I0
tp1414
a(I24375773
I4
I1
tp1415
a(I24375773
I5
I0
tp1416
a(I24438529
I0
I0
tp1417
a(I24438529
I3
I0
tp1418
a(I24550681
I1
I1
tp1419
a(I24610143
I1
I0
tp1420
a(I24622282
I0
I1
tp1421
a(I24622282
I1
I1
tp1422
a(I24633875
I0
I0
tp1423
a(I24633875
I1
I1
tp1424
a(I24636896
I3
I1
tp1425
a(I24656842
I0
I1
tp1426
a(I24657408
I0
I0
tp1427
a(I24657408
I1
I0
tp1428
a(I24660075
I0
I0
tp1429
a(I24660075
I4
I0
tp1430
a(I24707125
I0
I1
tp1431
a(I24726688
I1
I1
tp1432
a(I24779447
I0
I0
tp1433
a(I24794466
I1
I0
tp1434
a(I24795288
I0
I1
tp1435
a(I24833153
I1
I0
tp1436
a(I24848880
I1
I0
tp1437
a(I24920949
I1
I1
tp1438
a(I24939702
I0
I1
tp1439
a(I24939702
I1
I1
tp1440
a(I24970105
I0
I0
tp1441
a(I25032106
I0
I1
tp1442
a(I25032106
I1
I1
tp1443
a(I25036420
I1
I1
tp1444
a(I25046224
I2
I0
tp1445
a(I25046224
I3
I0
tp1446
a(I25046224
I4
I0
tp1447
a(I25076117
I1
I0
tp1448
a(I25076117
I2
I0
tp1449
a(I25095284
I0
I1
tp1450
a(I25095284
I1
I0
tp1451
a(I25140883
I1
I1
tp1452
a(I25144691
I1
I1
tp1453
a(I25207558
I0
I1
tp1454
a(I25238315
I0
I1
tp1455
a(I25259434
I0
I0
tp1456
a(I25275552
I1
I1
tp1457
a(I25321698
I0
I1
tp1458
a(I25361410
I0
I1
tp1459
a(I25361410
I1
I1
tp1460
a(I25380801
I0
I1
tp1461
a(I25380801
I1
I1
tp1462
a(I25390857
I0
I0
tp1463
a(I25390857
I1
I0
tp1464
a(I25420950
I1
I1
tp1465
a(I25428684
I1
I0
tp1466
a(I25472241
I0
I1
tp1467
a(I25472241
I1
I0
tp1468
a(I25522070
I0
I0
tp1469
a(I25531666
I1
I1
tp1470
a(I25538698
I0
I1
tp1471
a(I25543723
I1
I0
tp1472
a(I25547827
I1
I1
tp1473
a(I25547827
I2
I1
tp1474
a(I25570210
I1
I0
tp1475
a(I25579264
I0
I1
tp1476
a(I25579264
I4
I1
tp1477
a(I25585674
I0
I1
tp1478
a(I25652248
I0
I1
tp1479
a(I25652248
I1
I1
tp1480
a(I25687106
I1
I0
tp1481
a(I25687106
I2
I0
tp1482
a(I25687106
I3
I0
tp1483
a(I25687106
I4
I0
tp1484
a(I25687106
I5
I0
tp1485
a(I25687106
I6
I0
tp1486
a(I25687106
I7
I1
tp1487
a(I25790263
I1
I1
tp1488
a(I25839647
I0
I0
tp1489
a(I25839647
I1
I0
tp1490
a(I25916350
I1
I1
tp1491
a(I25940181
I0
I1
tp1492
a(I25941109
I1
I0
tp1493
a(I26001924
I0
I1
tp1494
a(I26063286
I0
I0
tp1495
a(I26063286
I1
I1
tp1496
a(I26088814
I0
I0
tp1497
a(I26102456
I1
I0
tp1498
a(I26162762
I1
I1
tp1499
a(I26167223
I0
I1
tp1500
a(I26208027
I0
I1
tp1501
a(I26208027
I1
I1
tp1502
a(I26227103
I0
I0
tp1503
a(I26227103
I1
I1
tp1504
a(I26285750
I0
I0
tp1505
a(I26313466
I1
I1
tp1506
a(I26332939
I0
I0
tp1507
a(I26332939
I2
I0
tp1508
a(I26341790
I0
I1
tp1509
a(I26341790
I1
I1
tp1510
a(I26341790
I2
I1
tp1511
a(I26381169
I0
I1
tp1512
a(I26383863
I1
I0
tp1513
a(I26383863
I2
I1
tp1514
a(I26398902
I1
I0
tp1515
a(I26429966
I0
I1
tp1516
a(I26449233
I1
I1
tp1517
a(I26494428
I0
I1
tp1518
a(I26494428
I1
I0
tp1519
a(I26496183
I0
I1
tp1520
a(I26496183
I1
I1
tp1521
a(I26518526
I0
I0
tp1522
a(I26518526
I1
I1
tp1523
a(I26548087
I1
I0
tp1524
a(I26607450
I1
I1
tp1525
a(I26607450
I5
I0
tp1526
a(I26607450
I7
I0
tp1527
a(I26682614
I0
I1
tp1528
a(I26682614
I1
I1
tp1529
a(I26682614
I2
I1
tp1530
a(I26711455
I0
I1
tp1531
a(I26718516
I0
I0
tp1532
a(I26728011
I0
I1
tp1533
a(I26728011
I2
I1
tp1534
a(I26728011
I4
I0
tp1535
a(I26729494
I1
I0
tp1536
a(I26804962
I0
I1
tp1537
a(I26804962
I1
I1
tp1538
a(I26862578
I1
I0
tp1539
a(I26906460
I0
I1
tp1540
a(I26906460
I1
I1
tp1541
a(I26929769
I4
I0
tp1542
a(I26942697
I0
I1
tp1543
a(I26945528
I1
I0
tp1544
a(I26965377
I1
I1
tp1545
a(I27004031
I1
I1
tp1546
a(I27055911
I0
I0
tp1547
a(I27055911
I1
I0
tp1548
a(I27122437
I0
I1
tp1549
a(I27122437
I1
I0
tp1550
a(I27162998
I0
I1
tp1551
a(I27166043
I0
I1
tp1552
a(I27166043
I1
I1
tp1553
a(I27218389
I0
I0
tp1554
a(I27218389
I1
I0
tp1555
a(I27218389
I2
I0
tp1556
a(I27251701
I1
I0
tp1557
a(I27251701
I4
I0
tp1558
a(I27304683
I0
I0
tp1559
a(I27304683
I2
I0
tp1560
a(I27304683
I3
I1
tp1561
a(I27309001
I0
I1
tp1562
a(I27309001
I1
I1
tp1563
a(I27315388
I0
I1
tp1564
a(I27326723
I0
I1
tp1565
a(I27379264
I0
I1
tp1566
a(I27379264
I1
I0
tp1567
a(I27379264
I2
I1
tp1568
a(I27379264
I3
I0
tp1569
a(I27381225
I1
I0
tp1570
a(I27381225
I2
I0
tp1571
a(I27399755
I0
I0
tp1572
a(I27399755
I1
I0
tp1573
a(I27399755
I4
I0
tp1574
a(I27417566
I0
I1
tp1575
a(I27417566
I1
I1
tp1576
a(I27418411
I1
I0
tp1577
a(I27473908
I0
I0
tp1578
a(I27473908
I1
I1
tp1579
a(I27512053
I1
I0
tp1580
a(I27521297
I0
I0
tp1581
a(I27521297
I3
I0
tp1582
a(I27554417
I2
I1
tp1583
a(I27563140
I0
I1
tp1584
a(I27571493
I0
I1
tp1585
a(I27571493
I1
I1
tp1586
a(I27585801
I0
I1
tp1587
a(I27585801
I1
I0
tp1588
a(I27610637
I0
I1
tp1589
a(I27689846
I1
I1
tp1590
a(I27789682
I1
I0
tp1591
a(I27789682
I3
I0
tp1592
a(I27817195
I0
I0
tp1593
a(I27817195
I1
I1
tp1594
a(I27832430
I0
I1
tp1595
a(I27855167
I1
I0
tp1596
a(I27855167
I2
I1
tp1597
a(I27876454
I0
I1
tp1598
a(I27916519
I1
I1
tp1599
a(I27932305
I1
I0
tp1600
a(I27932305
I2
I0
tp1601
a(I27979526
I0
I1
tp1602
a(I27979526
I1
I1
tp1603
a(I27979526
I2
I1
tp1604
a(I27979526
I3
I1
tp1605
a(I28031438
I0
I1
tp1606
a(I28043394
I0
I0
tp1607
a(I28043394
I1
I0
tp1608
a(I28061347
I1
I1
tp1609
a(I28068971
I1
I0
tp1610
a(I28068971
I2
I0
tp1611
a(I28068971
I3
I0
tp1612
a(I28068971
I4
I0
tp1613
a(I28068971
I5
I0
tp1614
a(I28082687
I0
I1
tp1615
a(I28082687
I1
I0
tp1616
a(I28109037
I1
I0
tp1617
a(I28129007
I1
I0
tp1618
a(I28129007
I2
I1
tp1619
a(I28147528
I1
I1
tp1620
a(I28152970
I1
I1
tp1621
a(I28190592
I1
I1
tp1622
a(I28219230
I1
I1
tp1623
a(I28219230
I2
I1
tp1624
a(I28243845
I0
I1
tp1625
a(I28243845
I2
I1
tp1626
a(I28252370
I1
I0
tp1627
a(I28263926
I0
I1
tp1628
a(I28263926
I1
I1
tp1629
a(I28277247
I0
I1
tp1630
a(I28277247
I1
I0
tp1631
a(I28278115
I0
I1
tp1632
a(I28278115
I1
I1
tp1633
a(I28278115
I2
I1
tp1634
a(I28285834
I1
I1
tp1635
a(I28308752
I0
I0
tp1636
a(I28308752
I1
I1
tp1637
a(I28339885
I2
I1
tp1638
a(I28371337
I1
I1
tp1639
a(I28397342
I0
I0
tp1640
a(I28397342
I1
I1
tp1641
a(I28474871
I1
I1
tp1642
a(I28481148
I1
I0
tp1643
a(I28483426
I0
I1
tp1644
a(I28483426
I1
I1
tp1645
a(I28537722
I1
I0
tp1646
a(I28544816
I0
I1
tp1647
a(I28611170
I1
I0
tp1648
a(I28619830
I0
I1
tp1649
a(I28619830
I1
I1
tp1650
a(I28628081
I0
I1
tp1651
a(I28675581
I3
I1
tp1652
a(I28675581
I4
I0
tp1653
a(I28679208
I0
I1
tp1654
a(I28679208
I1
I0
tp1655
a(I28752104
I1
I0
tp1656
a(I28775590
I0
I0
tp1657
a(I28775590
I1
I0
tp1658
a(I28805092
I0
I0
tp1659
a(I28805092
I1
I0
tp1660
a(I28840985
I1
I1
tp1661
a(I28846567
I0
I0
tp1662
a(I28846567
I2
I1
tp1663
a(I28927069
I0
I1
tp1664
a(I28961739
I0
I1
tp1665
a(I28961739
I1
I0
tp1666
a(I28986618
I0
I1
tp1667
a(I28986618
I1
I0
tp1668
a(I29012160
I1
I1
tp1669
a(I29027827
I2
I0
tp1670
a(I29065148
I0
I1
tp1671
a(I29113209
I0
I0
tp1672
a(I29113209
I1
I0
tp1673
a(I29141134
I0
I1
tp1674
a(I29169309
I0
I1
tp1675
a(I29240487
I0
I1
tp1676
a(I29240487
I1
I1
tp1677
a(I29254576
I1
I0
tp1678
a(I29254576
I2
I0
tp1679
a(I29276354
I0
I1
tp1680
a(I29276354
I1
I0
tp1681
a(I29292248
I0
I1
tp1682
a(I29292248
I1
I0
tp1683
a(I29312505
I0
I1
tp1684
a(I29312505
I1
I1
tp1685
a(I29318004
I0
I1
tp1686
a(I29318004
I1
I1
tp1687
a(I29359799
I0
I1
tp1688
a(I29359799
I1
I1
tp1689
a(I29407378
I1
I0
tp1690
a(I29446361
I0
I1
tp1691
a(I29446361
I1
I0
tp1692
a(I29470119
I0
I1
tp1693
a(I29470119
I1
I1
tp1694
a(I29474365
I0
I1
tp1695
a(I29489036
I0
I1
tp1696
a(I29521617
I0
I1
tp1697
a(I29533346
I0
I1
tp1698
a(I29563877
I0
I1
tp1699
a(I29598252
I0
I0
tp1700
a(I29598252
I2
I1
tp1701
a(I29619943
I0
I1
tp1702
a(I29628590
I0
I1
tp1703
a(I29628590
I1
I1
tp1704
a(I29645733
I0
I1
tp1705
a(I29645733
I1
I0
tp1706
a(I29652394
I2
I0
tp1707
a(I29660006
I1
I0
tp1708
a(I29660006
I2
I0
tp1709
a(I29660006
I3
I0
tp1710
a(I29716952
I0
I0
tp1711
a(I29716952
I2
I0
tp1712
a(I29721968
I0
I1
tp1713
a(I29721968
I1
I1
tp1714
a(I29759568
I0
I0
tp1715
a(I29771413
I0
I0
tp1716
a(I29776360
I2
I1
tp1717
a(I29782934
I1
I0
tp1718
a(I29802055
I0
I0
tp1719
a(I29827229
I1
I0
tp1720
a(I29827229
I2
I0
tp1721
a(I29883190
I0
I0
tp1722
a(I29883190
I1
I0
tp1723
a(I29883190
I2
I0
tp1724
a(I29883190
I3
I1
tp1725
a(I29923332
I0
I1
tp1726
a(I29932394
I1
I0
tp1727
a(I29949018
I1
I0
tp1728
a(I30003686
I1
I0
tp1729
a(I30003686
I2
I0
tp1730
a(I30030023
I0
I0
tp1731
a(I30030023
I1
I1
tp1732
a(I30030023
I2
I1
tp1733
a(I30030023
I3
I1
tp1734
a(I30099821
I0
I1
tp1735
a(I30108652
I0
I1
tp1736
a(I30108652
I1
I0
tp1737
a(I30134105
I1
I1
tp1738
a(I30141267
I0
I1
tp1739
a(I30166727
I0
I0
tp1740
a(I30166727
I1
I0
tp1741
a(I30174842
I0
I0
tp1742
a(I30174842
I1
I1
tp1743
a(I30191802
I0
I1
tp1744
a(I30191802
I1
I1
tp1745
a(I30205573
I0
I0
tp1746
a(I30211424
I1
I0
tp1747
a(I30239227
I0
I1
tp1748
a(I30263295
I0
I0
tp1749
a(I30263295
I3
I0
tp1750
a(I30298547
I0
I1
tp1751
a(I30298547
I1
I1
tp1752
a(I30309531
I0
I0
tp1753
a(I30356880
I1
I1
tp1754
a(I30356880
I3
I1
tp1755
a(I30356880
I4
I0
tp1756
a(I30356880
I5
I1
tp1757
a(I30356880
I6
I0
tp1758
a(I30392961
I0
I1
tp1759
a(I30404402
I0
I1
tp1760
a(I30437156
I0
I1
tp1761
a(I30437156
I1
I0
tp1762
a(I30458856
I0
I1
tp1763
a(I30458856
I1
I1
tp1764
a(I30458856
I2
I1
tp1765
a(I30494810
I2
I0
tp1766
a(I30494810
I3
I0
tp1767
a(I30494810
I5
I0
tp1768
a(I30494810
I7
I0
tp1769
a(I30522930
I1
I1
tp1770
a(I30578605
I0
I1
tp1771
a(I30607214
I0
I0
tp1772
a(I30607214
I2
I0
tp1773
a(I30616479
I0
I0
tp1774
a(I30643949
I1
I1
tp1775
a(I30652021
I0
I1
tp1776
a(I30652021
I1
I1
tp1777
a(I30805539
I0
I1
tp1778
a(I30843033
I0
I1
tp1779
a(I30843033
I2
I1
tp1780
a(I30857779
I1
I0
tp1781
a(I30877040
I1
I0
tp1782
a(I30906021
I2
I1
tp1783
a(I30932071
I0
I1
tp1784
a(I30932071
I1
I0
tp1785
a(I30934830
I0
I1
tp1786
a(I30977821
I0
I1
tp1787
a(I30977821
I5
I0
tp1788
a(I31010476
I0
I0
tp1789
a(I31010476
I2
I0
tp1790
a(I31072333
I1
I0
tp1791
a(I31086391
I0
I0
tp1792
a(I31132669
I2
I1
tp1793
a(I31143856
I0
I1
tp1794
a(I31173730
I1
I1
tp1795
a(I31173730
I2
I0
tp1796
a(I31231963
I0
I1
tp1797
a(I31273373
I0
I1
tp1798
a(I31273373
I1
I0
tp1799
a(I31273373
I2
I0
tp1800
a(I31273373
I5
I0
tp1801
a(I31277383
I0
I0
tp1802
a(I31281768
I0
I0
tp1803
a(I31281768
I2
I0
tp1804
a(I31281768
I3
I0
tp1805
a(I31281768
I4
I0
tp1806
a(I31281768
I5
I0
tp1807
a(I31424830
I0
I1
tp1808
a(I31444591
I0
I1
tp1809
a(I31444591
I1
I1
tp1810
a(I31444591
I3
I0
tp1811
a(I31448656
I0
I1
tp1812
a(I31468957
I0
I1
tp1813
a(I31468957
I1
I0
tp1814
a(I31468957
I2
I1
tp1815
a(I31478205
I0
I1
tp1816
a(I31533615
I0
I0
tp1817
a(I31533615
I1
I1
tp1818
a(I31544792
I0
I1
tp1819
a(I31544792
I1
I1
tp1820
a(I31565962
I0
I1
tp1821
a(I31643835
I0
I1
tp1822
a(I31643835
I1
I1
tp1823
a(I31659215
I1
I1
tp1824
a(I31685845
I1
I1
tp1825
a(I31720854
I2
I0
tp1826
a(I31720854
I4
I0
tp1827
a(I31720854
I5
I0
tp1828
a(I31720854
I6
I0
tp1829
a(I31721962
I0
I0
tp1830
a(I31722522
I1
I1
tp1831
a(I31723200
I1
I0
tp1832
a(I31723200
I2
I0
tp1833
a(I31741652
I0
I0
tp1834
a(I31741652
I1
I0
tp1835
a(I31741652
I2
I1
tp1836
a(I31741652
I3
I0
tp1837
a(I31771130
I0
I1
tp1838
a(I31831068
I1
I0
tp1839
a(I31840220
I0
I1
tp1840
a(I31840220
I1
I1
tp1841
a(I31855759
I0
I1
tp1842
a(I31899032
I0
I1
tp1843
a(I31899032
I1
I0
tp1844
a(I31965908
I0
I1
tp1845
a(I31977969
I0
I1
tp1846
a(I31977969
I1
I1
tp1847
a(I31978339
I1
I0
tp1848
a(I32049478
I1
I1
tp1849
a(I32095863
I0
I0
tp1850
a(I32095863
I2
I1
tp1851
a(I32096616
I0
I1
tp1852
a(I32112171
I0
I1
tp1853
a(I32112171
I1
I1
tp1854
a(I32128843
I0
I1
tp1855
a(I32128843
I1
I1
tp1856
a(I32150683
I0
I1
tp1857
a(I32150683
I1
I0
tp1858
a(I32182160
I1
I1
tp1859
a(I32241284
I1
I1
tp1860
a(I32277369
I0
I1
tp1861
a(I32277369
I1
I1
tp1862
a(I32288840
I0
I1
tp1863
a(I32304479
I0
I0
tp1864
a(I32304479
I1
I1
tp1865
a(I32317079
I0
I0
tp1866
a(I32317079
I1
I0
tp1867
a(I32317079
I3
I0
tp1868
a(I32332145
I0
I1
tp1869
a(I32332145
I1
I0
tp1870
a(I32367084
I0
I0
tp1871
a(I32367084
I1
I0
tp1872
a(I32372280
I0
I0
tp1873
a(I32372280
I1
I0
tp1874
a(I32372280
I2
I1
tp1875
a(I32372280
I3
I0
tp1876
a(I32427391
I1
I1
tp1877
a(I32427391
I2
I0
tp1878
a(I32461027
I0
I1
tp1879
a(I32526207
I0
I1
tp1880
a(I32526207
I1
I1
tp1881
a(I32563912
I1
I0
tp1882
a(I32565311
I1
I1
tp1883
a(I32594433
I0
I1
tp1884
a(I32594433
I2
I0
tp1885
a(I32615598
I1
I1
tp1886
a(I32633252
I0
I1
tp1887
a(I32697433
I0
I1
tp1888
a(I32697433
I2
I0
tp1889
a(I32697433
I4
I0
tp1890
a(I32768245
I0
I1
tp1891
a(I32802567
I0
I0
tp1892
a(I32819225
I1
I1
tp1893
a(I32849144
I2
I0
tp1894
a(I32880727
I0
I1
tp1895
a(I32880727
I1
I0
tp1896
a(I32928624
I1
I0
tp1897
a(I32933497
I1
I1
tp1898
a(I32943515
I1
I0
tp1899
a(I32943515
I2
I1
tp1900
a(I32962508
I0
I1
tp1901
a(I32962508
I2
I1
tp1902
a(I32985768
I2
I0
tp1903
a(I33020243
I0
I1
tp1904
a(I33085816
I0
I1
tp1905
a(I33087355
I0
I0
tp1906
a(I33108437
I1
I0
tp1907
a(I33108437
I2
I0
tp1908
a(I33118186
I0
I0
tp1909
a(I33118186
I2
I0
tp1910
a(I33137311
I1
I0
tp1911
a(I33137311
I2
I0
tp1912
a(I33149080
I0
I1
tp1913
a(I33149080
I1
I0
tp1914
a(I33156695
I1
I1
tp1915
a(I33234319
I0
I0
tp1916
a(I33258020
I2
I1
tp1917
a(I33267250
I0
I1
tp1918
a(I33267250
I2
I1
tp1919
a(I33273676
I0
I1
tp1920
a(I33279715
I0
I1
tp1921
a(I33279715
I1
I1
tp1922
a(I33346218
I0
I1
tp1923
a(I33367569
I0
I1
tp1924
a(I33372188
I0
I1
tp1925
a(I33372188
I1
I0
tp1926
a(I33372188
I2
I0
tp1927
a(I33383829
I1
I1
tp1928
a(I33428932
I0
I1
tp1929
a(I33428932
I1
I1
tp1930
a(I33428932
I2
I1
tp1931
a(I33437351
I1
I1
tp1932
a(I33447891
I0
I1
tp1933
a(I33447891
I1
I1
tp1934
a(I33451718
I0
I1
tp1935
a(I33451718
I1
I1
tp1936
a(I33470158
I0
I1
tp1937
a(I33475700
I0
I1
tp1938
a(I33475700
I1
I1
tp1939
a(I33483212
I1
I1
tp1940
a(I33510248
I1
I0
tp1941
a(I33510248
I2
I1
tp1942
a(I33538420
I1
I1
tp1943
a(I33541995
I2
I1
tp1944
a(I33573890
I0
I0
tp1945
a(I33573890
I1
I0
tp1946
a(I33593080
I0
I1
tp1947
a(I33593080
I1
I1
tp1948
a(I33605918
I0
I0
tp1949
a(I33605918
I1
I1
tp1950
a(I33608191
I0
I0
tp1951
a(I33608191
I1
I0
tp1952
a(I33608191
I2
I0
tp1953
a(I33613089
I0
I0
tp1954
a(I33633660
I0
I0
tp1955
a(I33633660
I1
I0
tp1956
a(I33633660
I3
I0
tp1957
a(I33633660
I4
I0
tp1958
a(I33648148
I0
I0
tp1959
a(I33648148
I2
I1
tp1960
a(I33736317
I1
I0
tp1961
a(I33736317
I3
I0
tp1962
a(I33791094
I0
I1
tp1963
a(I33791862
I0
I0
tp1964
a(I33791862
I2
I0
tp1965
a(I33791862
I4
I0
tp1966
a(I33831023
I0
I0
tp1967
a(I33831023
I2
I0
tp1968
a(I33860211
I0
I0
tp1969
a(I33860657
I0
I1
tp1970
a(I33883763
I1
I1
tp1971
a(I33897526
I5
I0
tp1972
a(I33939688
I0
I0
tp1973
a(I33939688
I1
I1
tp1974
a(I33939688
I2
I0
tp1975
a(I33939688
I3
I1
tp1976
a(I33939688
I4
I0
tp1977
a(I33939688
I5
I1
tp1978
a(I33939688
I7
I1
tp1979
a(I33962020
I1
I1
tp1980
a(I33965409
I0
I0
tp1981
a(I33965409
I2
I0
tp1982
a(I34004813
I0
I0
tp1983
a(I34004813
I1
I0
tp1984
a(I34005749
I1
I1
tp1985
a(I34031494
I0
I0
tp1986
a(I34031494
I1
I0
tp1987
a(I34031494
I3
I0
tp1988
a(I34031494
I4
I0
tp1989
a(I34082441
I2
I1
tp1990
a(I34121399
I2
I0
tp1991
a(I34191191
I1
I1
tp1992
a(I34191191
I2
I1
tp1993
a(I34218190
I0
I1
tp1994
a(I34218190
I1
I0
tp1995
a(I34221483
I0
I1
tp1996
a(I34221483
I1
I0
tp1997
a(I34232471
I0
I1
tp1998
a(I34242338
I1
I0
tp1999
a(I34245868
I0
I0
tp2000
a(I34309419
I0
I0
tp2001
a(I34309419
I1
I0
tp2002
a(I34309419
I2
I1
tp2003
a(I34309419
I3
I0
tp2004
a(I34353369
I1
I1
tp2005
a(I34417879
I0
I0
tp2006
a(I34417879
I2
I0
tp2007
a(I34417879
I4
I0
tp2008
a(I34486588
I1
I1
tp2009
a(I34508028
I0
I1
tp2010
a(I34508028
I1
I1
tp2011
a(I34516501
I0
I1
tp2012
a(I34604707
I0
I0
tp2013
a(I34610639
I0
I1
tp2014
a(I34610639
I1
I0
tp2015
a(I34610639
I4
I0
tp2016
a(I34612343
I1
I1
tp2017
a(I34643471
I1
I0
tp2018
a(I34660036
I0
I0
tp2019
a(I34687839
I2
I0
tp2020
a(I34696374
I1
I1
tp2021
a(I34712380
I1
I1
tp2022
a(I34722021
I0
I0
tp2023
a(I34722021
I2
I0
tp2024
a(I34722021
I4
I0
tp2025
a(I34766139
I0
I1
tp2026
a(I34773830
I0
I1
tp2027
a(I34786699
I1
I0
tp2028
a(I34786699
I4
I1
tp2029
a(I34845881
I0
I1
tp2030
a(I34875353
I1
I1
tp2031
a(I34876711
I0
I1
tp2032
a(I34876711
I1
I0
tp2033
a(I34908511
I0
I1
tp2034
a(I34908511
I1
I0
tp2035
a(I34954765
I2
I0
tp2036
a(I35011175
I1
I0
tp2037
a(I35036298
I0
I0
tp2038
a(I35036298
I1
I1
tp2039
a(I35041250
I1
I0
tp2040
a(I35093560
I0
I1
tp2041
a(I35104380
I1
I1
tp2042
a(I35150739
I1
I1
tp2043
a(I35183616
I0
I1
tp2044
a(I35183616
I1
I0
tp2045
a(I35222092
I0
I1
tp2046
a(I35222092
I1
I1
tp2047
a(I35238887
I0
I0
tp2048
a(I35238887
I2
I0
tp2049
a(I35238887
I3
I1
tp2050
a(I35238887
I5
I0
tp2051
a(I35238887
I6
I0
tp2052
a(I35260298
I1
I0
tp2053
a(I35263742
I0
I1
tp2054
a(I35268549
I0
I0
tp2055
a(I35268549
I3
I0
tp2056
a(I35268549
I4
I0
tp2057
a(I35268549
I5
I0
tp2058
a(I35291850
I0
I1
tp2059
a(I35291850
I1
I0
tp2060
a(I35295861
I0
I1
tp2061
a(I35295861
I2
I1
tp2062
a(I35321999
I0
I0
tp2063
a(I35321999
I1
I0
tp2064
a(I35321999
I2
I0
tp2065
a(I35330341
I1
I0
tp2066
a(I35354450
I0
I0
tp2067
a(I35361258
I1
I1
tp2068
a(I35361258
I2
I0
tp2069
a(I35391959
I2
I1
tp2070
a(I35435745
I0
I0
tp2071
a(I35435745
I1
I1
tp2072
a(I35471226
I1
I1
tp2073
a(I35478088
I0
I0
tp2074
a(I35478088
I1
I1
tp2075
a(I35478088
I4
I0
tp2076
a(I35478088
I5
I1
tp2077
a(I35508881
I0
I1
tp2078
a(I35508881
I1
I1
tp2079
a(I35574490
I2
I0
tp2080
a(I35575481
I1
I0
tp2081
a(I35577600
I1
I1
tp2082
a(I35578867
I0
I1
tp2083
a(I35640282
I0
I0
tp2084
a(I35640282
I1
I0
tp2085
a(I35647425
I0
I1
tp2086
a(I35647425
I1
I0
tp2087
a(I35700944
I0
I1
tp2088
a(I35700944
I1
I1
tp2089
a(I35701321
I0
I1
tp2090
a(I35701321
I1
I0
tp2091
a(I35701321
I2
I1
tp2092
a(I35753972
I1
I0
tp2093
a(I35753972
I2
I1
tp2094
a(I35753972
I3
I0
tp2095
a(I35756149
I0
I0
tp2096
a(I35777522
I0
I1
tp2097
a(I35777522
I2
I0
tp2098
a(I35800153
I0
I1
tp2099
a(I35800153
I1
I0
tp2100
a(I35822621
I1
I1
tp2101
a(I35840854
I0
I1
tp2102
a(I35869713
I0
I1
tp2103
a(I35903825
I0
I0
tp2104
a(I35903825
I1
I0
tp2105
a(I35913338
I0
I1
tp2106
a(I36057894
I0
I1
tp2107
a(I36086980
I0
I0
tp2108
a(I36131131
I0
I1
tp2109
a(I36249094
I0
I1
tp2110
a(I36281485
I0
I1
tp2111
a(I36294617
I0
I1
tp2112
a(I36330259
I1
I0
tp2113
a(I36377860
I0
I0
tp2114
a(I36377860
I1
I0
tp2115
a(I36377860
I2
I1
tp2116
a(I36402026
I1
I0
tp2117
a(I36425557
I1
I0
tp2118
a(I36425557
I4
I0
tp2119
a(I36433001
I0
I0
tp2120
a(I36433001
I1
I1
tp2121
a(I36435813
I0
I1
tp2122
a(I36468687
I0
I1
tp2123
a(I36478669
I0
I1
tp2124
a(I36478669
I1
I0
tp2125
a(I36510415
I0
I1
tp2126
a(I36518328
I1
I0
tp2127
a(I36518328
I2
I0
tp2128
a(I36535515
I0
I1
tp2129
a(I36572728
I1
I1
tp2130
a(I36583115
I0
I1
tp2131
a(I36586811
I1
I1
tp2132
a(I36598033
I0
I1
tp2133
a(I36598033
I1
I1
tp2134
a(I36650818
I1
I1
tp2135
a(I36650818
I2
I1
tp2136
a(I36741708
I0
I1
tp2137
a(I36770316
I0
I1
tp2138
a(I36834990
I1
I1
tp2139
a(I36909436
I1
I1
tp2140
a(I36909436
I2
I0
tp2141
a(I36921158
I1
I0
tp2142
a(I36936128
I0
I1
tp2143
a(I36936128
I1
I1
tp2144
a(I36988239
I0
I1
tp2145
a(I36988239
I1
I0
tp2146
a(I36989059
I0
I1
tp2147
a(I36989059
I1
I1
tp2148
a(I37009235
I0
I1
tp2149
a(I37064962
I1
I0
tp2150
a(I37084523
I0
I1
tp2151
a(I37084523
I1
I1
tp2152
a(I37088208
I0
I1
tp2153
a(I37109635
I1
I0
tp2154
a(I37109635
I2
I0
tp2155
a(I37111927
I2
I0
tp2156
a(I37148559
I2
I0
tp2157
a(I37148559
I3
I0
tp2158
a(I37173392
I0
I0
tp2159
a(I37181919
I0
I1
tp2160
a(I37181919
I1
I1
tp2161
a(I37181919
I2
I1
tp2162
a(I37247507
I1
I0
tp2163
a(I37270805
I0
I1
tp2164
a(I37270805
I2
I0
tp2165
a(I37303429
I0
I1
tp2166
a(I37303429
I1
I1
tp2167
a(I37405073
I0
I1
tp2168
a(I37449748
I0
I0
tp2169
a(I37452178
I1
I0
tp2170
a(I37585047
I0
I1
tp2171
a(I37611560
I0
I0
tp2172
a(I37611560
I1
I1
tp2173
a(I37620195
I0
I0
tp2174
a(I37620195
I2
I1
tp2175
a(I37624090
I1
I0
tp2176
a(I37624090
I2
I0
tp2177
a(I37648860
I0
I0
tp2178
a(I37661098
I0
I1
tp2179
a(I37662540
I0
I1
tp2180
a(I37685156
I0
I1
tp2181
a(I37691287
I1
I1
tp2182
a(I37712305
I0
I0
tp2183
a(I192220
I1
I0
tp2184
a(I192220
I4
I0
tp2185
a(I313962
I1
I1
tp2186
a(I318528
I1
I0
tp2187
a(I318528
I2
I0
tp2188
a(I379556
I1
I0
tp2189
a(I501021
I1
I1
tp2190
a(I521270
I1
I1
tp2191
a(I539942
I1
I1
tp2192
a(I560694
I0
I0
tp2193
a(I560694
I1
I0
tp2194
a(I560694
I2
I0
tp2195
a(I706664
I2
I0
tp2196
a(I726582
I0
I0
tp2197
a(I726582
I2
I0
tp2198
a(I802027
I0
I1
tp2199
a(I970357
I1
I0
tp2200
a(I970357
I3
I0
tp2201
a(I1019661
I1
I0
tp2202
a(I1070122
I0
I1
tp2203
a(I1074529
I0
I0
tp2204
a(I1207740
I1
I1
tp2205
a(I1263780
I0
I1
tp2206
a(I1326701
I1
I0
tp2207
a(I1341505
I1
I0
tp2208
a(I1362148
I0
I1
tp2209
a(I1410216
I0
I0
tp2210
a(I1479831
I1
I1
tp2211
a(I1627604
I0
I1
tp2212
a(I1742507
I0
I1
tp2213
a(I1784283
I0
I1
tp2214
a(I1785942
I0
I1
tp2215
a(I1785942
I1
I0
tp2216
a(I1809787
I0
I1
tp2217
a(I1822504
I0
I1
tp2218
a(I1979522
I0
I1
tp2219
a(I1979522
I1
I0
tp2220
a(I2045053
I0
I1
tp2221
a(I2183107
I1
I0
tp2222
a(I2386632
I1
I1
tp2223
a(I2401396
I0
I0
tp2224
a(I2406693
I0
I1
tp2225
a(I2461579
I0
I0
tp2226
a(I2466091
I1
I1
tp2227
a(I2507933
I1
I1
tp2228
a(I2563918
I0
I1
tp2229
a(I2588304
I0
I1
tp2230
a(I2588304
I2
I1
tp2231
a(I2651249
I3
I1
tp2232
a(I2769007
I0
I0
tp2233
a(I2781419
I0
I1
tp2234
a(I2792388
I1
I1
tp2235
a(I2884295
I0
I1
tp2236
a(I2900217
I0
I1
tp2237
a(I2922856
I1
I0
tp2238
a(I2922856
I2
I1
tp2239
a(I2945765
I1
I1
tp2240
a(I2978700
I0
I1
tp2241
a(I3035105
I1
I1
tp2242
a(I3053125
I2
I0
tp2243
a(I3240290
I1
I1
tp2244
a(I3296390
I3
I1
tp2245
a(I3317750
I2
I0
tp2246
a(I3345268
I0
I1
tp2247
a(I3426560
I1
I1
tp2248
a(I3426560
I2
I1
tp2249
a(I3444082
I1
I1
tp2250
a(I3482194
I0
I0
tp2251
a(I3502478
I1
I1
tp2252
a(I3589286
I0
I1
tp2253
a(I3702873
I1
I0
tp2254
a(I3819810
I2
I1
tp2255
a(I3821642
I2
I0
tp2256
a(I3891758
I0
I0
tp2257
a(I3891758
I1
I0
tp2258
a(I3895652
I3
I0
tp2259
a(I3932947
I0
I1
tp2260
a(I3951413
I0
I1
tp2261
a(I3951413
I1
I1
tp2262
a(I4038960
I0
I1
tp2263
a(I4038960
I1
I1
tp2264
a(I4225984
I2
I0
tp2265
a(I4226144
I1
I1
tp2266
a(I4257442
I2
I0
tp2267
a(I4441599
I1
I1
tp2268
a(I4459902
I2
I1
tp2269
a(I4589157
I0
I1
tp2270
a(I4598659
I1
I1
tp2271
a(I4621932
I0
I1
tp2272
a(I4621932
I5
I1
tp2273
a(I4761507
I1
I1
tp2274
a(I4787104
I0
I1
tp2275
a(I4821831
I0
I0
tp2276
a(I4857837
I4
I1
tp2277
a(I4866013
I0
I1
tp2278
a(I4890793
I1
I1
tp2279
a(I4914898
I3
I0
tp2280
a(I4960337
I1
I1
tp2281
a(I4960337
I2
I1
tp2282
a(I4971561
I0
I1
tp2283
a(I5020149
I0
I1
tp2284
a(I5087616
I1
I1
tp2285
a(I5393244
I0
I0
tp2286
a(I5393244
I3
I0
tp2287
a(I5501347
I1
I1
tp2288
a(I5606689
I1
I0
tp2289
a(I5760020
I2
I1
tp2290
a(I6031181
I0
I1
tp2291
a(I6070894
I0
I1
tp2292
a(I6093085
I0
I1
tp2293
a(I6094039
I1
I1
tp2294
a(I6127338
I2
I1
tp2295
a(I6174355
I0
I0
tp2296
a(I6226690
I0
I1
tp2297
a(I6254626
I1
I1
tp2298
a(I6267954
I1
I1
tp2299
a(I6295231
I1
I1
tp2300
a(I6355613
I1
I0
tp2301
a(I6536396
I0
I1
tp2302
a(I6611453
I0
I0
tp2303
a(I6673667
I1
I1
tp2304
a(I6688196
I4
I1
tp2305
a(I6743541
I0
I0
tp2306
a(I6934563
I0
I0
tp2307
a(I6934563
I1
I0
tp2308
a(I7112526
I0
I1
tp2309
a(I7246987
I1
I0
tp2310
a(I7246987
I3
I0
tp2311
a(I7278905
I0
I0
tp2312
a(I7326337
I1
I0
tp2313
a(I7364969
I1
I1
tp2314
a(I7364969
I7
I1
tp2315
a(I7364969
I8
I1
tp2316
a(I7364969
I10
I1
tp2317
a(I7681122
I1
I0
tp2318
a(I8015482
I0
I1
tp2319
a(I8030624
I1
I1
tp2320
a(I8046386
I2
I0
tp2321
a(I8110165
I1
I0
tp2322
a(I8139699
I1
I1
tp2323
a(I8153000
I0
I1
tp2324
a(I8256892
I0
I1
tp2325
a(I8276553
I1
I1
tp2326
a(I8315026
I0
I1
tp2327
a(I8327616
I0
I1
tp2328
a(I8327616
I1
I1
tp2329
a(I8337138
I0
I0
tp2330
a(I8451558
I0
I0
tp2331
a(I8524475
I1
I0
tp2332
a(I8546198
I1
I1
tp2333
a(I8610517
I1
I0
tp2334
a(I8684054
I2
I0
tp2335
a(I8711054
I0
I1
tp2336
a(I8718458
I2
I1
tp2337
a(I8847175
I0
I0
tp2338
a(I9015870
I1
I1
tp2339
a(I9056169
I1
I1
tp2340
a(I9237650
I0
I1
tp2341
a(I9355066
I1
I0
tp2342
a(I9355066
I3
I1
tp2343
a(I9356686
I1
I1
tp2344
a(I9394879
I1
I0
tp2345
a(I9394879
I2
I0
tp2346
a(I9394879
I5
I0
tp2347
a(I9414038
I0
I0
tp2348
a(I9419615
I0
I0
tp2349
a(I9429371
I1
I1
tp2350
a(I9475177
I0
I0
tp2351
a(I9475177
I2
I0
tp2352
a(I9475177
I3
I0
tp2353
a(I9581458
I0
I1
tp2354
a(I9581458
I1
I1
tp2355
a(I9630859
I0
I0
tp2356
a(I9655852
I1
I1
tp2357
a(I9704624
I0
I0
tp2358
a(I9760884
I1
I0
tp2359
a(I10011337
I0
I1
tp2360
a(I10011337
I3
I0
tp2361
a(I10011337
I4
I0
tp2362
a(I10019557
I0
I1
tp2363
a(I10121680
I5
I0
tp2364
a(I10164354
I0
I1
tp2365
a(I10209706
I1
I0
tp2366
a(I10277115
I1
I1
tp2367
a(I10310499
I1
I1
tp2368
a(I10389260
I0
I1
tp2369
a(I10532323
I0
I1
tp2370
a(I10666965
I0
I1
tp2371
a(I10670090
I1
I1
tp2372
a(I10777996
I0
I0
tp2373
a(I10813098
I0
I1
tp2374
a(I10919401
I1
I1
tp2375
a(I10993189
I1
I1
tp2376
a(I10993546
I4
I0
tp2377
a(I10999396
I0
I1
tp2378
a(I11097839
I1
I1
tp2379
a(I11097839
I2
I0
tp2380
a(I11117622
I1
I1
tp2381
a(I11135522
I1
I1
tp2382
a(I11227924
I1
I1
tp2383
a(I11282433
I1
I1
tp2384
a(I11308438
I1
I0
tp2385
a(I11329936
I0
I1
tp2386
a(I11350686
I0
I1
tp2387
a(I11363669
I1
I0
tp2388
a(I11419308
I1
I0
tp2389
a(I11419793
I0
I1
tp2390
a(I11445551
I0
I1
tp2391
a(I11456664
I0
I1
tp2392
a(I11696995
I0
I1
tp2393
a(I11696995
I3
I0
tp2394
a(I11762700
I1
I0
tp2395
a(I11814210
I0
I1
tp2396
a(I11844855
I1
I1
tp2397
a(I11969118
I0
I1
tp2398
a(I12013073
I0
I1
tp2399
a(I12013073
I2
I1
tp2400
a(I12133106
I0
I1
tp2401
a(I12151979
I3
I0
tp2402
a(I12250195
I1
I0
tp2403
a(I12250195
I2
I1
tp2404
a(I12366390
I1
I1
tp2405
a(I12463628
I1
I0
tp2406
a(I12544051
I1
I1
tp2407
a(I12593776
I1
I1
tp2408
a(I12712480
I0
I1
tp2409
a(I12783579
I1
I0
tp2410
a(I12783579
I5
I0
tp2411
a(I12875040
I1
I1
tp2412
a(I13003656
I0
I1
tp2413
a(I13024512
I0
I1
tp2414
a(I13055295
I0
I1
tp2415
a(I13103114
I1
I1
tp2416
a(I13144230
I1
I0
tp2417
a(I13159227
I2
I1
tp2418
a(I13183568
I1
I0
tp2419
a(I13234818
I1
I0
tp2420
a(I13237623
I0
I1
tp2421
a(I13241518
I2
I0
tp2422
a(I13249903
I1
I1
tp2423
a(I13377997
I1
I1
tp2424
a(I13471159
I0
I1
tp2425
a(I13474207
I3
I1
tp2426
a(I13595333
I2
I1
tp2427
a(I13678718
I1
I1
tp2428
a(I13717630
I1
I1
tp2429
a(I13730484
I0
I1
tp2430
a(I13758033
I0
I1
tp2431
a(I13791170
I2
I1
tp2432
a(I13840468
I2
I0
tp2433
a(I14159629
I0
I1
tp2434
a(I14253673
I0
I1
tp2435
a(I14296002
I0
I0
tp2436
a(I14313834
I0
I0
tp2437
a(I14345171
I0
I0
tp2438
a(I14366759
I0
I1
tp2439
a(I14416241
I0
I1
tp2440
a(I14469652
I5
I0
tp2441
a(I14513314
I1
I1
tp2442
a(I14540736
I1
I1
tp2443
a(I14636901
I1
I1
tp2444
a(I14699703
I1
I0
tp2445
a(I14705215
I2
I1
tp2446
a(I14732938
I3
I1
tp2447
a(I14792677
I1
I1
tp2448
a(I14830410
I0
I1
tp2449
a(I15002034
I0
I1
tp2450
a(I15002034
I1
I0
tp2451
a(I15034144
I0
I1
tp2452
a(I15066914
I1
I0
tp2453
a(I15066914
I2
I0
tp2454
a(I15117826
I0
I0
tp2455
a(I15117826
I2
I0
tp2456
a(I15187839
I0
I1
tp2457
a(I15187839
I1
I1
tp2458
a(I15237740
I0
I1
tp2459
a(I15243399
I0
I1
tp2460
a(I15359303
I0
I1
tp2461
a(I15359303
I1
I1
tp2462
a(I15414398
I1
I1
tp2463
a(I15420689
I1
I0
tp2464
a(I15445216
I1
I0
tp2465
a(I15532084
I1
I0
tp2466
a(I15543977
I0
I1
tp2467
a(I15559090
I1
I0
tp2468
a(I15621609
I1
I1
tp2469
a(I15650876
I0
I1
tp2470
a(I15720109
I0
I1
tp2471
a(I15834569
I2
I0
tp2472
a(I15872394
I1
I0
tp2473
a(I15872394
I3
I0
tp2474
a(I15964439
I0
I0
tp2475
a(I15964439
I4
I0
tp2476
a(I16053215
I0
I1
tp2477
a(I16127878
I0
I0
tp2478
a(I16127878
I1
I0
tp2479
a(I16143769
I2
I0
tp2480
a(I16184493
I0
I1
tp2481
a(I16186786
I1
I0
tp2482
a(I16212126
I0
I1
tp2483
a(I16223233
I0
I0
tp2484
a(I16335925
I1
I1
tp2485
a(I16426094
I0
I1
tp2486
a(I16442686
I1
I1
tp2487
a(I16487093
I0
I1
tp2488
a(I16569297
I1
I0
tp2489
a(I16685165
I0
I1
tp2490
a(I16685165
I1
I1
tp2491
a(I16756054
I1
I0
tp2492
a(I16887108
I0
I1
tp2493
a(I16887108
I2
I1
tp2494
a(I16895364
I0
I1
tp2495
a(I16930761
I1
I1
tp2496
a(I16962915
I0
I1
tp2497
a(I16971556
I0
I0
tp2498
a(I17017125
I2
I0
tp2499
a(I17025457
I0
I1
tp2500
a(I17043777
I3
I1
tp2501
a(I17043777
I4
I1
tp2502
a(I17057129
I1
I0
tp2503
a(I17099089
I0
I1
tp2504
a(I17099697
I1
I1
tp2505
a(I17129510
I0
I0
tp2506
a(I17129510
I5
I0
tp2507
a(I17163648
I0
I1
tp2508
a(I17265080
I1
I0
tp2509
a(I17325149
I0
I1
tp2510
a(I17325149
I4
I0
tp2511
a(I17340363
I3
I0
tp2512
a(I17352572
I0
I0
tp2513
a(I17352572
I3
I0
tp2514
a(I17352572
I4
I0
tp2515
a(I17558290
I2
I0
tp2516
a(I17566573
I0
I1
tp2517
a(I17566573
I1
I1
tp2518
a(I17596708
I0
I0
tp2519
a(I17596708
I1
I0
tp2520
a(I17670284
I0
I1
tp2521
a(I17810221
I0
I1
tp2522
a(I17851492
I1
I0
tp2523
a(I17910415
I0
I0
tp2524
a(I17910415
I1
I0
tp2525
a(I18020825
I2
I1
tp2526
a(I18111896
I0
I1
tp2527
a(I18186212
I0
I1
tp2528
a(I18187989
I1
I1
tp2529
a(I18251762
I1
I1
tp2530
a(I18277282
I0
I1
tp2531
a(I18359263
I0
I1
tp2532
a(I18359263
I2
I0
tp2533
a(I18404055
I1
I0
tp2534
a(I18410600
I0
I0
tp2535
a(I18486580
I1
I1
tp2536
a(I18499562
I1
I1
tp2537
a(I18534648
I0
I1
tp2538
a(I18547311
I1
I1
tp2539
a(I18547311
I3
I1
tp2540
a(I18570414
I0
I0
tp2541
a(I18629310
I0
I1
tp2542
a(I18629310
I1
I1
tp2543
a(I18749306
I4
I0
tp2544
a(I18764988
I0
I1
tp2545
a(I18778492
I0
I0
tp2546
a(I18858779
I1
I0
tp2547
a(I18858779
I2
I0
tp2548
a(I18858779
I3
I0
tp2549
a(I18858779
I4
I0
tp2550
a(I18922620
I0
I1
tp2551
a(I18992088
I0
I1
tp2552
a(I19005246
I1
I1
tp2553
a(I19041847
I0
I1
tp2554
a(I19136921
I1
I0
tp2555
a(I19181164
I1
I0
tp2556
a(I19189050
I1
I0
tp2557
a(I19256123
I0
I1
tp2558
a(I19270491
I0
I0
tp2559
a(I19270491
I2
I0
tp2560
a(I19436954
I3
I1
tp2561
a(I19532288
I2
I0
tp2562
a(I19562212
I0
I1
tp2563
a(I19582702
I0
I1
tp2564
a(I19663813
I0
I1
tp2565
a(I19718193
I1
I1
tp2566
a(I19748723
I0
I1
tp2567
a(I19866409
I0
I1
tp2568
a(I19866409
I3
I0
tp2569
a(I19949250
I0
I1
tp2570
a(I19985833
I1
I1
tp2571
a(I20062208
I2
I1
tp2572
a(I20197566
I3
I0
tp2573
a(I20435406
I0
I0
tp2574
a(I20435406
I2
I0
tp2575
a(I20519532
I2
I0
tp2576
a(I20589984
I0
I0
tp2577
a(I20707736
I0
I0
tp2578
a(I20757884
I0
I0
tp2579
a(I20794860
I0
I1
tp2580
a(I20794860
I1
I0
tp2581
a(I20830315
I1
I0
tp2582
a(I20838921
I1
I1
tp2583
a(I20922520
I0
I0
tp2584
a(I20935221
I1
I0
tp2585
a(I20935240
I2
I0
tp2586
a(I21136618
I1
I0
tp2587
a(I21167225
I0
I0
tp2588
a(I21250631
I1
I0
tp2589
a(I21250631
I2
I0
tp2590
a(I21270528
I0
I0
tp2591
a(I21286642
I0
I1
tp2592
a(I21286804
I1
I1
tp2593
a(I21302307
I0
I0
tp2594
a(I21302307
I2
I0
tp2595
a(I21313983
I1
I1
tp2596
a(I21389431
I1
I1
tp2597
a(I21400367
I1
I1
tp2598
a(I21481598
I3
I1
tp2599
a(I21532604
I2
I0
tp2600
a(I21532604
I3
I0
tp2601
a(I21535167
I1
I1
tp2602
a(I21622435
I1
I0
tp2603
a(I21646708
I0
I1
tp2604
a(I21646708
I1
I0
tp2605
a(I21669936
I0
I1
tp2606
a(I21731573
I2
I1
tp2607
a(I21765911
I1
I1
tp2608
a(I21786302
I0
I1
tp2609
a(I21841623
I1
I1
tp2610
a(I21875568
I0
I0
tp2611
a(I22052942
I0
I1
tp2612
a(I22055558
I2
I0
tp2613
a(I22180392
I0
I1
tp2614
a(I22205060
I1
I1
tp2615
a(I22366810
I6
I0
tp2616
a(I22390896
I0
I0
tp2617
a(I22655631
I0
I1
tp2618
a(I22738933
I3
I0
tp2619
a(I22738933
I4
I0
tp2620
a(I22742235
I0
I0
tp2621
a(I22742235
I3
I0
tp2622
a(I22914453
I3
I0
tp2623
a(I22914453
I4
I0
tp2624
a(I22921153
I0
I1
tp2625
a(I22963994
I0
I1
tp2626
a(I22986618
I0
I0
tp2627
a(I23146750
I0
I1
tp2628
a(I23176321
I0
I0
tp2629
a(I23176321
I2
I0
tp2630
a(I23219081
I0
I1
tp2631
a(I23225721
I0
I1
tp2632
a(I23303779
I0
I0
tp2633
a(I23349694
I1
I1
tp2634
a(I23369574
I1
I0
tp2635
a(I23433143
I1
I1
tp2636
a(I23608624
I0
I1
tp2637
a(I23676371
I3
I0
tp2638
a(I23676371
I4
I0
tp2639
a(I23705421
I0
I1
tp2640
a(I23803359
I1
I1
tp2641
a(I23907556
I1
I0
tp2642
a(I23907556
I3
I0
tp2643
a(I23908145
I1
I1
tp2644
a(I23948815
I1
I1
tp2645
a(I23954139
I1
I0
tp2646
a(I23963860
I2
I0
tp2647
a(I23997222
I1
I0
tp2648
a(I24035933
I4
I0
tp2649
a(I24035933
I6
I0
tp2650
a(I24342739
I0
I0
tp2651
a(I24391293
I0
I1
tp2652
a(I24391293
I2
I0
tp2653
a(I24438529
I1
I0
tp2654
a(I24438529
I2
I0
tp2655
a(I24497436
I0
I0
tp2656
a(I24550681
I0
I1
tp2657
a(I24610143
I2
I0
tp2658
a(I24669926
I1
I0
tp2659
a(I24707125
I1
I1
tp2660
a(I24726688
I0
I1
tp2661
a(I24779447
I1
I0
tp2662
a(I24794466
I0
I0
tp2663
a(I24795288
I1
I1
tp2664
a(I24848880
I0
I1
tp2665
a(I24855053
I2
I1
tp2666
a(I24910861
I1
I0
tp2667
a(I24920949
I0
I0
tp2668
a(I24920949
I2
I0
tp2669
a(I24921796
I0
I1
tp2670
a(I24921796
I1
I0
tp2671
a(I24921796
I2
I0
tp2672
a(I24939702
I2
I0
tp2673
a(I25076117
I0
I0
tp2674
a(I25275552
I0
I1
tp2675
a(I25292138
I1
I1
tp2676
a(I25319348
I0
I0
tp2677
a(I25321698
I1
I0
tp2678
a(I25321698
I2
I0
tp2679
a(I25420950
I0
I1
tp2680
a(I25428684
I0
I1
tp2681
a(I25537492
I0
I1
tp2682
a(I25537492
I1
I0
tp2683
a(I25579264
I1
I0
tp2684
a(I25585674
I2
I1
tp2685
a(I25734598
I0
I0
tp2686
a(I25916350
I0
I1
tp2687
a(I25961419
I0
I1
tp2688
a(I25992186
I0
I0
tp2689
a(I26001924
I1
I1
tp2690
a(I26004152
I0
I1
tp2691
a(I26004152
I1
I1
tp2692
a(I26019476
I1
I0
tp2693
a(I26019476
I3
I0
tp2694
a(I26046622
I0
I1
tp2695
a(I26102456
I0
I1
tp2696
a(I26167223
I1
I1
tp2697
a(I26285750
I1
I0
tp2698
a(I26429966
I1
I0
tp2699
a(I26430013
I0
I0
tp2700
a(I26449233
I0
I1
tp2701
a(I26548087
I0
I1
tp2702
a(I26592173
I2
I1
tp2703
a(I26607450
I0
I1
tp2704
a(I26849766
I0
I1
tp2705
a(I26929769
I2
I1
tp2706
a(I26929769
I3
I1
tp2707
a(I27004031
I0
I1
tp2708
a(I27107093
I0
I0
tp2709
a(I27112737
I0
I1
tp2710
a(I27112737
I2
I1
tp2711
a(I27251701
I0
I0
tp2712
a(I27315388
I1
I1
tp2713
a(I27399755
I2
I0
tp2714
a(I27399755
I3
I0
tp2715
a(I27418411
I0
I0
tp2716
a(I27471951
I1
I1
tp2717
a(I27476006
I1
I1
tp2718
a(I27521297
I1
I0
tp2719
a(I27547669
I1
I0
tp2720
a(I27554417
I0
I1
tp2721
a(I27554417
I1
I1
tp2722
a(I27554417
I3
I1
tp2723
a(I27563140
I1
I0
tp2724
a(I27573760
I0
I1
tp2725
a(I27573760
I2
I1
tp2726
a(I27585801
I2
I0
tp2727
a(I27682228
I0
I0
tp2728
a(I27855167
I3
I0
tp2729
a(I27876454
I1
I1
tp2730
a(I28068971
I0
I0
tp2731
a(I28109037
I0
I1
tp2732
a(I28129007
I0
I0
tp2733
a(I28152970
I0
I1
tp2734
a(I28243845
I1
I1
tp2735
a(I28252370
I0
I1
tp2736
a(I28339885
I0
I1
tp2737
a(I28339885
I1
I1
tp2738
a(I28483426
I2
I0
tp2739
a(I28537722
I0
I0
tp2740
a(I28566000
I1
I1
tp2741
a(I28663276
I1
I0
tp2742
a(I28663276
I3
I0
tp2743
a(I28675581
I0
I1
tp2744
a(I28698635
I0
I1
tp2745
a(I28749544
I0
I0
tp2746
a(I28749544
I1
I1
tp2747
a(I28840985
I0
I1
tp2748
a(I29027827
I1
I0
tp2749
a(I29169309
I1
I0
tp2750
a(I29272756
I0
I1
tp2751
a(I29272756
I1
I0
tp2752
a(I29272756
I2
I0
tp2753
a(I29487482
I0
I1
tp2754
a(I29489036
I1
I0
tp2755
a(I29619943
I1
I0
tp2756
a(I29652394
I0
I0
tp2757
a(I29802055
I1
I1
tp2758
a(I29802055
I2
I0
tp2759
a(I29871937
I0
I1
tp2760
a(I29941637
I1
I0
tp2761
a(I30099821
I1
I1
tp2762
a(I30134105
I0
I0
tp2763
a(I30141267
I1
I1
tp2764
a(I30211424
I0
I0
tp2765
a(I30356880
I0
I0
tp2766
a(I30391960
I1
I1
tp2767
a(I30392961
I1
I0
tp2768
a(I30494810
I1
I0
tp2769
a(I30494810
I4
I0
tp2770
a(I30522930
I0
I1
tp2771
a(I30577660
I0
I1
tp2772
a(I30577660
I1
I1
tp2773
a(I30607214
I1
I0
tp2774
a(I30616479
I1
I0
tp2775
a(I30616479
I3
I0
tp2776
a(I30616479
I4
I0
tp2777
a(I30643949
I0
I1
tp2778
a(I30843033
I1
I1
tp2779
a(I30934830
I1
I1
tp2780
a(I30977821
I2
I0
tp2781
a(I31132669
I1
I1
tp2782
a(I31173730
I0
I0
tp2783
a(I31194265
I1
I1
tp2784
a(I31231963
I1
I1
tp2785
a(I31273373
I4
I0
tp2786
a(I31281768
I1
I0
tp2787
a(I31333228
I0
I1
tp2788
a(I31333228
I1
I1
tp2789
a(I31424830
I1
I1
tp2790
a(I31468957
I3
I0
tp2791
a(I31565962
I1
I1
tp2792
a(I31659215
I0
I1
tp2793
a(I31720854
I1
I0
tp2794
a(I31944662
I1
I1
tp2795
a(I31978339
I0
I1
tp2796
a(I32049478
I0
I1
tp2797
a(I32053653
I0
I1
tp2798
a(I32096616
I1
I1
tp2799
a(I32288840
I1
I1
tp2800
a(I32381393
I0
I0
tp2801
a(I32427391
I3
I1
tp2802
a(I32437153
I0
I0
tp2803
a(I32437153
I1
I1
tp2804
a(I32565311
I2
I0
tp2805
a(I32594433
I1
I0
tp2806
a(I32697433
I1
I1
tp2807
a(I32719239
I0
I1
tp2808
a(I32802567
I1
I1
tp2809
a(I32832623
I2
I0
tp2810
a(I32849144
I0
I0
tp2811
a(I32864721
I1
I1
tp2812
a(I32933497
I0
I1
tp2813
a(I32983858
I0
I1
tp2814
a(I32983858
I1
I1
tp2815
a(I32985768
I0
I0
tp2816
a(I33050763
I1
I0
tp2817
a(I33050763
I2
I0
tp2818
a(I33050763
I3
I0
tp2819
a(I33085816
I1
I1
tp2820
a(I33118186
I1
I0
tp2821
a(I33135937
I1
I1
tp2822
a(I33258020
I0
I1
tp2823
a(I33258020
I1
I1
tp2824
a(I33267250
I1
I1
tp2825
a(I33275284
I0
I1
tp2826
a(I33275284
I1
I1
tp2827
a(I33383829
I2
I1
tp2828
a(I33437351
I0
I1
tp2829
a(I33470158
I1
I0
tp2830
a(I33483212
I0
I1
tp2831
a(I33538420
I0
I1
tp2832
a(I33541995
I0
I1
tp2833
a(I33573890
I2
I0
tp2834
a(I33613089
I2
I0
tp2835
a(I33633660
I2
I0
tp2836
a(I33791094
I1
I0
tp2837
a(I33860211
I1
I0
tp2838
a(I33860211
I2
I1
tp2839
a(I33897526
I2
I0
tp2840
a(I33939688
I8
I0
tp2841
a(I33965409
I1
I0
tp2842
a(I34005749
I0
I1
tp2843
a(I34031494
I2
I0
tp2844
a(I34082441
I0
I1
tp2845
a(I34232471
I1
I1
tp2846
a(I34242338
I0
I1
tp2847
a(I34245868
I1
I0
tp2848
a(I34254637
I0
I0
tp2849
a(I34273934
I1
I1
tp2850
a(I34273934
I2
I0
tp2851
a(I34278143
I1
I0
tp2852
a(I34340729
I0
I0
tp2853
a(I34353369
I0
I1
tp2854
a(I34435022
I0
I1
tp2855
a(I34486588
I0
I1
tp2856
a(I34612343
I0
I0
tp2857
a(I34687839
I1
I0
tp2858
a(I34687839
I3
I0
tp2859
a(I34766139
I1
I0
tp2860
a(I34845881
I1
I1
tp2861
a(I34875353
I2
I1
tp2862
a(I34876711
I2
I0
tp2863
a(I34954765
I1
I0
tp2864
a(I35093560
I1
I1
tp2865
a(I35104380
I0
I1
tp2866
a(I35150739
I0
I1
tp2867
a(I35238887
I4
I0
tp2868
a(I35260298
I0
I0
tp2869
a(I35263742
I1
I1
tp2870
a(I35268549
I2
I0
tp2871
a(I35293084
I0
I1
tp2872
a(I35391959
I1
I1
tp2873
a(I35471226
I0
I1
tp2874
a(I35478088
I2
I0
tp2875
a(I35478088
I3
I1
tp2876
a(I35574490
I0
I0
tp2877
a(I35575481
I0
I1
tp2878
a(I35578867
I1
I1
tp2879
a(I35661363
I1
I1
tp2880
a(I35777522
I1
I0
tp2881
a(I35802709
I0
I1
tp2882
a(I35869713
I2
I0
tp2883
a(I36117235
I0
I1
tp2884
a(I36176385
I0
I1
tp2885
a(I36294617
I1
I1
tp2886
a(I36330259
I0
I1
tp2887
a(I36402026
I0
I1
tp2888
a(I36425557
I0
I0
tp2889
a(I36425557
I2
I0
tp2890
a(I36435813
I1
I1
tp2891
a(I36468687
I1
I0
tp2892
a(I36535515
I1
I1
tp2893
a(I36550777
I1
I1
tp2894
a(I36569182
I1
I1
tp2895
a(I36583115
I1
I0
tp2896
a(I36586811
I0
I1
tp2897
a(I36650818
I0
I1
tp2898
a(I36741708
I1
I0
tp2899
a(I36770316
I1
I1
tp2900
a(I37009235
I1
I1
tp2901
a(I37064962
I0
I1
tp2902
a(I37148559
I1
I0
tp2903
a(I37148559
I4
I0
tp2904
a(I37270805
I1
I1
tp2905
a(I37316901
I0
I1
tp2906
a(I37452486
I0
I0
tp2907
a(I37661098
I1
I0
tp2908
a(I37691287
I0
I1
tp2909
a(I37712305
I2
I0
tp2910
a(I44780
I1
I0
tp2911
a(I128623
I1
I0
tp2912
a(I192220
I0
I0
tp2913
a(I192220
I2
I0
tp2914
a(I313962
I0
I1
tp2915
a(I318528
I0
I0
tp2916
a(I363084
I1
I1
tp2917
a(I379556
I0
I1
tp2918
a(I501021
I0
I1
tp2919
a(I556509
I0
I1
tp2920
a(I576071
I1
I1
tp2921
a(I674776
I0
I1
tp2922
a(I778909
I0
I1
tp2923
a(I895876
I0
I1
tp2924
a(I938232
I0
I1
tp2925
a(I951401
I0
I1
tp2926
a(I1019661
I2
I0
tp2927
a(I1070122
I1
I1
tp2928
a(I1074529
I2
I0
tp2929
a(I1146012
I1
I1
tp2930
a(I1197943
I1
I0
tp2931
a(I1410216
I1
I0
tp2932
a(I1747745
I0
I0
tp2933
a(I2355791
I1
I1
tp2934
a(I2411210
I0
I1
tp2935
a(I2507933
I0
I0
tp2936
a(I2524600
I0
I1
tp2937
a(I2588304
I3
I0
tp2938
a(I2651249
I0
I0
tp2939
a(I2746331
I0
I1
tp2940
a(I2919168
I1
I0
tp2941
a(I2919168
I3
I1
tp2942
a(I3318852
I0
I1
tp2943
a(I3318852
I2
I0
tp2944
a(I3361768
I0
I1
tp2945
a(I3589286
I1
I1
tp2946
a(I3675616
I1
I0
tp2947
a(I3827025
I0
I1
tp2948
a(I3900330
I1
I0
tp2949
a(I4017878
I1
I1
tp2950
a(I4062845
I0
I0
tp2951
a(I4212229
I1
I0
tp2952
a(I4283031
I0
I1
tp2953
a(I4283031
I3
I1
tp2954
a(I4400347
I0
I1
tp2955
a(I4434581
I0
I1
tp2956
a(I4589157
I1
I1
tp2957
a(I4621932
I2
I1
tp2958
a(I4773206
I0
I1
tp2959
a(I4823208
I0
I1
tp2960
a(I4841038
I3
I0
tp2961
a(I4841038
I6
I0
tp2962
a(I4866013
I2
I1
tp2963
a(I4890793
I0
I1
tp2964
a(I4914898
I0
I0
tp2965
a(I4914898
I2
I0
tp2966
a(I4960337
I0
I1
tp2967
a(I5087616
I2
I0
tp2968
a(I5111728
I0
I1
tp2969
a(I5171809
I1
I1
tp2970
a(I5290418
I1
I1
tp2971
a(I5331808
I0
I1
tp2972
a(I5380843
I1
I0
tp2973
a(I5410918
I1
I1
tp2974
a(I5455914
I0
I0
tp2975
a(I5462205
I0
I1
tp2976
a(I5479975
I0
I1
tp2977
a(I5479975
I1
I1
tp2978
a(I5501347
I0
I1
tp2979
a(I5795541
I1
I1
tp2980
a(I5803133
I0
I1
tp2981
a(I5992308
I1
I0
tp2982
a(I6057352
I2
I1
tp2983
a(I6127338
I0
I1
tp2984
a(I6127338
I1
I1
tp2985
a(I6226690
I1
I0
tp2986
a(I6227934
I0
I1
tp2987
a(I6254626
I2
I0
tp2988
a(I6280565
I0
I1
tp2989
a(I6333687
I0
I1
tp2990
a(I6333687
I2
I0
tp2991
a(I6468506
I0
I1
tp2992
a(I6468506
I1
I1
tp2993
a(I6524697
I1
I1
tp2994
a(I6551214
I1
I0
tp2995
a(I6621502
I2
I0
tp2996
a(I6688196
I1
I0
tp2997
a(I6688196
I3
I0
tp2998
a(I6691865
I0
I1
tp2999
a(I6691865
I1
I1
tp3000
a(I6745525
I1
I0
tp3001
a(I6814426
I0
I1
tp3002
a(I6836478
I0
I0
tp3003
a(I6994843
I2
I0
tp3004
a(I7112526
I1
I0
tp3005
a(I7116576
I0
I0
tp3006
a(I7270243
I1
I0
tp3007
a(I7274514
I0
I0
tp3008
a(I7315875
I0
I1
tp3009
a(I7315875
I1
I1
tp3010
a(I7322330
I0
I1
tp3011
a(I7364969
I2
I1
tp3012
a(I7364969
I6
I1
tp3013
a(I7392374
I0
I1
tp3014
a(I7558371
I0
I1
tp3015
a(I7605630
I0
I1
tp3016
a(I7656057
I0
I1
tp3017
a(I7745609
I0
I0
tp3018
a(I7745609
I1
I1
tp3019
a(I7748125
I0
I1
tp3020
a(I7830197
I1
I1
tp3021
a(I7905182
I1
I1
tp3022
a(I7991363
I0
I1
tp3023
a(I8046345
I0
I1
tp3024
a(I8046386
I5
I0
tp3025
a(I8073455
I0
I1
tp3026
a(I8108295
I1
I1
tp3027
a(I8128360
I0
I0
tp3028
a(I8216437
I0
I1
tp3029
a(I8276553
I0
I1
tp3030
a(I8293350
I1
I1
tp3031
a(I8315026
I1
I1
tp3032
a(I8337138
I1
I1
tp3033
a(I8629046
I2
I0
tp3034
a(I8669703
I1
I1
tp3035
a(I8684054
I0
I1
tp3036
a(I8711054
I1
I1
tp3037
a(I8806028
I0
I1
tp3038
a(I8928978
I2
I1
tp3039
a(I9056169
I0
I0
tp3040
a(I9127317
I0
I1
tp3041
a(I9127317
I1
I1
tp3042
a(I9153901
I0
I1
tp3043
a(I9153901
I1
I1
tp3044
a(I9206962
I0
I1
tp3045
a(I9218949
I1
I0
tp3046
a(I9356686
I0
I1
tp3047
a(I9394879
I0
I1
tp3048
a(I9414038
I1
I1
tp3049
a(I9419615
I2
I0
tp3050
a(I9432630
I1
I0
tp3051
a(I9459554
I0
I1
tp3052
a(I9518900
I0
I1
tp3053
a(I9548686
I1
I0
tp3054
a(I9548686
I2
I0
tp3055
a(I9573470
I2
I1
tp3056
a(I9623187
I0
I0
tp3057
a(I9777457
I0
I0
tp3058
a(I9777457
I2
I0
tp3059
a(I9789395
I0
I1
tp3060
a(I9919278
I0
I1
tp3061
a(I10011337
I1
I0
tp3062
a(I10011337
I2
I0
tp3063
a(I10035769
I0
I1
tp3064
a(I10035769
I1
I1
tp3065
a(I10121680
I3
I0
tp3066
a(I10139181
I0
I1
tp3067
a(I10189129
I1
I1
tp3068
a(I10199927
I1
I1
tp3069
a(I10296422
I0
I0
tp3070
a(I10330898
I1
I1
tp3071
a(I10338000
I1
I0
tp3072
a(I10389260
I5
I0
tp3073
a(I10659824
I0
I1
tp3074
a(I10659824
I1
I0
tp3075
a(I10666965
I5
I1
tp3076
a(I10670090
I0
I1
tp3077
a(I10797333
I0
I1
tp3078
a(I10813098
I1
I1
tp3079
a(I10860452
I2
I0
tp3080
a(I10918093
I0
I1
tp3081
a(I10993546
I0
I0
tp3082
a(I11019847
I0
I1
tp3083
a(I11104819
I0
I0
tp3084
a(I11119197
I2
I0
tp3085
a(I11215684
I0
I0
tp3086
a(I11215684
I2
I1
tp3087
a(I11307344
I0
I1
tp3088
a(I11307344
I1
I0
tp3089
a(I11350686
I2
I1
tp3090
a(I11404664
I1
I0
tp3091
a(I11426911
I0
I1
tp3092
a(I11436797
I0
I1
tp3093
a(I11480527
I1
I0
tp3094
a(I11568694
I0
I0
tp3095
a(I11696995
I1
I0
tp3096
a(I11696995
I2
I0
tp3097
a(I11783678
I0
I1
tp3098
a(I11793666
I1
I1
tp3099
a(I11814210
I1
I0
tp3100
a(I11847584
I0
I1
tp3101
a(I11847584
I2
I1
tp3102
a(I11852951
I0
I1
tp3103
a(I11852951
I3
I0
tp3104
a(I11900470
I3
I0
tp3105
a(I11912188
I1
I0
tp3106
a(I11912188
I2
I0
tp3107
a(I11960289
I1
I0
tp3108
a(I12050795
I1
I1
tp3109
a(I12085307
I2
I0
tp3110
a(I12085307
I4
I0
tp3111
a(I12088243
I0
I0
tp3112
a(I12133106
I1
I1
tp3113
a(I12151979
I2
I1
tp3114
a(I12175474
I0
I1
tp3115
a(I12175474
I1
I1
tp3116
a(I12248899
I0
I1
tp3117
a(I12335438
I0
I0
tp3118
a(I12366390
I0
I1
tp3119
a(I12386646
I0
I1
tp3120
a(I12456897
I1
I1
tp3121
a(I12579635
I1
I1
tp3122
a(I12773500
I0
I1
tp3123
a(I12783579
I0
I0
tp3124
a(I12823575
I0
I1
tp3125
a(I12839031
I0
I1
tp3126
a(I12849213
I0
I1
tp3127
a(I12879550
I1
I1
tp3128
a(I12989520
I0
I1
tp3129
a(I13024512
I1
I1
tp3130
a(I13054785
I5
I0
tp3131
a(I13068001
I0
I1
tp3132
a(I13068001
I1
I1
tp3133
a(I13080106
I1
I1
tp3134
a(I13096793
I1
I1
tp3135
a(I13234818
I0
I0
tp3136
a(I13277973
I1
I1
tp3137
a(I13281693
I1
I1
tp3138
a(I13410246
I0
I1
tp3139
a(I13419701
I0
I1
tp3140
a(I13452415
I0
I1
tp3141
a(I13471159
I1
I0
tp3142
a(I13523272
I1
I1
tp3143
a(I13545617
I0
I1
tp3144
a(I13632163
I0
I1
tp3145
a(I13717630
I0
I1
tp3146
a(I13730484
I1
I0
tp3147
a(I13791170
I1
I1
tp3148
a(I13791170
I4
I1
tp3149
a(I13840468
I7
I1
tp3150
a(I13967474
I0
I1
tp3151
a(I14091654
I0
I1
tp3152
a(I14206236
I0
I1
tp3153
a(I14296002
I1
I0
tp3154
a(I14355527
I1
I1
tp3155
a(I14372302
I0
I1
tp3156
a(I14385741
I0
I1
tp3157
a(I14400023
I0
I0
tp3158
a(I14537280
I1
I1
tp3159
a(I14610658
I1
I1
tp3160
a(I14675304
I0
I1
tp3161
a(I14699703
I0
I1
tp3162
a(I14792677
I0
I1
tp3163
a(I14838374
I1
I0
tp3164
a(I14952911
I1
I1
tp3165
a(I14964462
I0
I1
tp3166
a(I15122065
I0
I1
tp3167
a(I15208232
I0
I1
tp3168
a(I15208232
I1
I0
tp3169
a(I15264563
I2
I1
tp3170
a(I15302356
I2
I0
tp3171
a(I15357576
I0
I1
tp3172
a(I15376335
I0
I1
tp3173
a(I15428168
I0
I1
tp3174
a(I15428168
I1
I1
tp3175
a(I15436509
I0
I1
tp3176
a(I15512015
I0
I1
tp3177
a(I15541196
I0
I1
tp3178
a(I15541196
I1
I0
tp3179
a(I15616278
I1
I0
tp3180
a(I15616638
I1
I0
tp3181
a(I15622474
I1
I0
tp3182
a(I15650876
I1
I1
tp3183
a(I15706765
I0
I1
tp3184
a(I15706765
I3
I0
tp3185
a(I15720109
I1
I0
tp3186
a(I15808243
I0
I1
tp3187
a(I15964439
I3
I0
tp3188
a(I16053425
I0
I1
tp3189
a(I16053425
I3
I1
tp3190
a(I16136119
I0
I1
tp3191
a(I16136119
I1
I1
tp3192
a(I16143769
I1
I0
tp3193
a(I16186786
I0
I1
tp3194
a(I16216129
I2
I1
tp3195
a(I16223233
I1
I0
tp3196
a(I16223233
I3
I0
tp3197
a(I16330159
I1
I1
tp3198
a(I16372169
I0
I0
tp3199
a(I16490625
I1
I1
tp3200
a(I16507239
I3
I0
tp3201
a(I16569297
I0
I1
tp3202
a(I16688990
I2
I0
tp3203
a(I16688990
I4
I0
tp3204
a(I16797418
I1
I1
tp3205
a(I16797418
I3
I1
tp3206
a(I16874590
I0
I1
tp3207
a(I16877276
I1
I0
tp3208
a(I16877276
I3
I0
tp3209
a(I16930761
I0
I1
tp3210
a(I16971556
I1
I0
tp3211
a(I17003542
I0
I1
tp3212
a(I17003542
I1
I1
tp3213
a(I17043777
I2
I1
tp3214
a(I17044086
I1
I1
tp3215
a(I17073134
I1
I1
tp3216
a(I17102375
I0
I1
tp3217
a(I17129510
I1
I0
tp3218
a(I17129510
I3
I0
tp3219
a(I17325149
I1
I1
tp3220
a(I17325149
I5
I0
tp3221
a(I17325149
I11
I0
tp3222
a(I17535389
I1
I0
tp3223
a(I17598953
I1
I0
tp3224
a(I17750801
I2
I1
tp3225
a(I17769111
I1
I0
tp3226
a(I17828198
I0
I1
tp3227
a(I17828198
I1
I1
tp3228
a(I17851492
I2
I1
tp3229
a(I17890157
I0
I1
tp3230
a(I18020825
I1
I0
tp3231
a(I18105224
I0
I1
tp3232
a(I18111896
I1
I1
tp3233
a(I18187989
I0
I1
tp3234
a(I18251762
I0
I1
tp3235
a(I18415438
I0
I1
tp3236
a(I18513029
I1
I1
tp3237
a(I18547311
I0
I0
tp3238
a(I18619973
I1
I1
tp3239
a(I18669731
I0
I1
tp3240
a(I18669731
I1
I0
tp3241
a(I18747853
I0
I1
tp3242
a(I18749306
I3
I0
tp3243
a(I18757944
I1
I1
tp3244
a(I18764988
I1
I1
tp3245
a(I18777437
I1
I1
tp3246
a(I18778492
I1
I0
tp3247
a(I18852505
I1
I1
tp3248
a(I18920393
I1
I0
tp3249
a(I18920393
I2
I1
tp3250
a(I18920393
I3
I0
tp3251
a(I18920393
I4
I1
tp3252
a(I19005246
I0
I1
tp3253
a(I19053225
I0
I1
tp3254
a(I19068044
I2
I1
tp3255
a(I19073500
I1
I1
tp3256
a(I19101688
I0
I1
tp3257
a(I19136921
I2
I0
tp3258
a(I19155321
I0
I0
tp3259
a(I19181164
I0
I0
tp3260
a(I19256123
I1
I0
tp3261
a(I19268811
I0
I1
tp3262
a(I19268811
I1
I1
tp3263
a(I19307842
I0
I1
tp3264
a(I19353473
I2
I0
tp3265
a(I19359464
I1
I1
tp3266
a(I19408757
I0
I0
tp3267
a(I19499472
I0
I0
tp3268
a(I19499472
I1
I1
tp3269
a(I19532288
I4
I1
tp3270
a(I19532801
I0
I1
tp3271
a(I19562212
I1
I1
tp3272
a(I19582702
I1
I0
tp3273
a(I19645073
I0
I1
tp3274
a(I19663813
I2
I1
tp3275
a(I19680651
I0
I1
tp3276
a(I19680651
I1
I1
tp3277
a(I19690325
I0
I0
tp3278
a(I19866409
I5
I0
tp3279
a(I19939624
I0
I1
tp3280
a(I19949250
I1
I1
tp3281
a(I19968525
I0
I0
tp3282
a(I20072250
I1
I0
tp3283
a(I20147303
I1
I1
tp3284
a(I20197566
I6
I0
tp3285
a(I20197566
I7
I0
tp3286
a(I20299075
I0
I1
tp3287
a(I20358637
I1
I0
tp3288
a(I20401247
I0
I0
tp3289
a(I20637482
I0
I1
tp3290
a(I20783264
I0
I1
tp3291
a(I20838921
I4
I0
tp3292
a(I20838921
I5
I0
tp3293
a(I20838921
I8
I1
tp3294
a(I20922520
I1
I1
tp3295
a(I20935221
I2
I1
tp3296
a(I21234177
I0
I1
tp3297
a(I21250631
I4
I0
tp3298
a(I21259677
I1
I0
tp3299
a(I21302307
I4
I0
tp3300
a(I21311393
I1
I0
tp3301
a(I21311393
I3
I0
tp3302
a(I21389431
I0
I1
tp3303
a(I21481598
I0
I0
tp3304
a(I21528762
I1
I1
tp3305
a(I21532604
I1
I0
tp3306
a(I21540219
I1
I1
tp3307
a(I21546809
I0
I1
tp3308
a(I21546809
I1
I0
tp3309
a(I21546809
I2
I0
tp3310
a(I21640927
I1
I1
tp3311
a(I21786302
I1
I0
tp3312
a(I21832842
I3
I0
tp3313
a(I21835289
I1
I0
tp3314
a(I21869166
I2
I0
tp3315
a(I21950759
I1
I1
tp3316
a(I21969425
I1
I1
tp3317
a(I21977220
I0
I0
tp3318
a(I21977220
I3
I0
tp3319
a(I22040663
I0
I1
tp3320
a(I22170964
I1
I0
tp3321
a(I22228967
I0
I0
tp3322
a(I22258390
I0
I1
tp3323
a(I22366810
I2
I0
tp3324
a(I22366810
I5
I0
tp3325
a(I22393469
I1
I0
tp3326
a(I22399836
I0
I1
tp3327
a(I22452123
I1
I0
tp3328
a(I22468717
I2
I1
tp3329
a(I22512709
I0
I1
tp3330
a(I22544486
I1
I1
tp3331
a(I22583760
I1
I0
tp3332
a(I22622841
I0
I0
tp3333
a(I22629022
I1
I0
tp3334
a(I22655631
I1
I1
tp3335
a(I22668248
I6
I0
tp3336
a(I22724852
I1
I1
tp3337
a(I22738933
I0
I0
tp3338
a(I22738933
I1
I0
tp3339
a(I22742235
I2
I0
tp3340
a(I22783242
I1
I0
tp3341
a(I22861123
I0
I1
tp3342
a(I22910039
I1
I1
tp3343
a(I22921153
I1
I1
tp3344
a(I23034365
I1
I1
tp3345
a(I23035651
I1
I0
tp3346
a(I23069422
I0
I0
tp3347
a(I23069422
I1
I0
tp3348
a(I23106523
I1
I1
tp3349
a(I23124414
I2
I1
tp3350
a(I23129852
I2
I0
tp3351
a(I23151241
I1
I1
tp3352
a(I23219081
I1
I1
tp3353
a(I23433143
I0
I1
tp3354
a(I23478919
I1
I0
tp3355
a(I23527871
I1
I1
tp3356
a(I23608624
I1
I1
tp3357
a(I23803359
I3
I0
tp3358
a(I23803359
I4
I0
tp3359
a(I23821632
I0
I1
tp3360
a(I23828906
I1
I0
tp3361
a(I23908145
I0
I1
tp3362
a(I23950035
I0
I1
tp3363
a(I23959544
I1
I0
tp3364
a(I23959544
I2
I0
tp3365
a(I23963860
I0
I0
tp3366
a(I23963860
I5
I0
tp3367
a(I23992536
I1
I0
tp3368
a(I24012213
I0
I0
tp3369
a(I24012213
I2
I0
tp3370
a(I24035933
I2
I0
tp3371
a(I24035933
I5
I0
tp3372
a(I24040834
I0
I1
tp3373
a(I24082669
I2
I1
tp3374
a(I24116066
I1
I0
tp3375
a(I24170440
I1
I1
tp3376
a(I24287463
I1
I1
tp3377
a(I24291644
I1
I1
tp3378
a(I24310683
I1
I1
tp3379
a(I24372541
I1
I0
tp3380
a(I24375773
I2
I1
tp3381
a(I24375773
I3
I0
tp3382
a(I24391293
I1
I1
tp3383
a(I24497436
I1
I0
tp3384
a(I24610143
I0
I0
tp3385
a(I24636896
I0
I1
tp3386
a(I24636896
I1
I1
tp3387
a(I24636896
I2
I1
tp3388
a(I24660075
I3
I0
tp3389
a(I24669926
I0
I0
tp3390
a(I24855053
I0
I1
tp3391
a(I24855053
I1
I1
tp3392
a(I24910861
I2
I1
tp3393
a(I24970105
I1
I1
tp3394
a(I25036420
I0
I1
tp3395
a(I25046224
I0
I1
tp3396
a(I25046224
I1
I0
tp3397
a(I25046224
I5
I0
tp3398
a(I25207558
I1
I1
tp3399
a(I25238315
I1
I0
tp3400
a(I25259434
I1
I1
tp3401
a(I25292138
I0
I1
tp3402
a(I25390857
I2
I0
tp3403
a(I25531666
I0
I1
tp3404
a(I25538698
I1
I0
tp3405
a(I25547827
I0
I1
tp3406
a(I25560497
I0
I0
tp3407
a(I25570210
I0
I0
tp3408
a(I25579264
I3
I0
tp3409
a(I25585674
I1
I1
tp3410
a(I25734598
I1
I0
tp3411
a(I25940181
I1
I1
tp3412
a(I25961419
I1
I1
tp3413
a(I25992186
I1
I0
tp3414
a(I26019476
I0
I1
tp3415
a(I26046622
I1
I1
tp3416
a(I26063793
I0
I0
tp3417
a(I26162762
I0
I1
tp3418
a(I26285750
I2
I0
tp3419
a(I26313466
I0
I1
tp3420
a(I26383863
I3
I0
tp3421
a(I26398902
I0
I1
tp3422
a(I26430013
I1
I0
tp3423
a(I26592173
I0
I1
tp3424
a(I26592173
I1
I1
tp3425
a(I26607450
I2
I0
tp3426
a(I26607450
I4
I0
tp3427
a(I26718516
I1
I0
tp3428
a(I26718516
I2
I0
tp3429
a(I26728011
I1
I1
tp3430
a(I26728011
I3
I1
tp3431
a(I26729494
I0
I1
tp3432
a(I26729494
I2
I0
tp3433
a(I26849766
I1
I1
tp3434
a(I26929769
I0
I1
tp3435
a(I26929769
I1
I0
tp3436
a(I26942697
I1
I0
tp3437
a(I26945528
I0
I1
tp3438
a(I27326723
I1
I0
tp3439
a(I27381225
I0
I1
tp3440
a(I27471951
I0
I1
tp3441
a(I27476006
I0
I1
tp3442
a(I27521297
I2
I0
tp3443
a(I27547669
I0
I1
tp3444
a(I27573760
I1
I1
tp3445
a(I27610637
I1
I1
tp3446
a(I27682228
I1
I0
tp3447
a(I27689846
I0
I1
tp3448
a(I27744850
I0
I1
tp3449
a(I27855167
I0
I1
tp3450
a(I27916519
I0
I1
tp3451
a(I27922122
I0
I0
tp3452
a(I27932305
I0
I0
tp3453
a(I28031438
I1
I1
tp3454
a(I28152970
I2
I1
tp3455
a(I28190592
I0
I1
tp3456
a(I28219230
I0
I1
tp3457
a(I28371337
I0
I1
tp3458
a(I28474871
I0
I1
tp3459
a(I28481148
I0
I1
tp3460
a(I28566000
I0
I1
tp3461
a(I28611170
I2
I0
tp3462
a(I28628081
I1
I1
tp3463
a(I28663276
I2
I0
tp3464
a(I28675581
I1
I1
tp3465
a(I28698635
I1
I0
tp3466
a(I28752104
I0
I1
tp3467
a(I28845170
I0
I1
tp3468
a(I28845170
I1
I0
tp3469
a(I28846567
I1
I0
tp3470
a(I28848937
I0
I1
tp3471
a(I28848937
I1
I0
tp3472
a(I29012160
I2
I1
tp3473
a(I29065148
I1
I0
tp3474
a(I29141134
I1
I1
tp3475
a(I29254576
I0
I0
tp3476
a(I29407378
I0
I1
tp3477
a(I29474365
I1
I1
tp3478
a(I29487482
I1
I0
tp3479
a(I29521617
I1
I0
tp3480
a(I29533346
I1
I1
tp3481
a(I29563877
I1
I0
tp3482
a(I29598252
I1
I1
tp3483
a(I29660006
I0
I1
tp3484
a(I29660006
I4
I0
tp3485
a(I29716952
I1
I0
tp3486
a(I29716952
I3
I1
tp3487
a(I29759568
I1
I0
tp3488
a(I29871937
I1
I1
tp3489
a(I29923332
I1
I0
tp3490
a(I29932394
I0
I1
tp3491
a(I29941637
I0
I1
tp3492
a(I29949018
I0
I0
tp3493
a(I30003686
I0
I0
tp3494
a(I30003686
I3
I0
tp3495
a(I30134105
I2
I0
tp3496
a(I30134105
I3
I1
tp3497
a(I30239227
I1
I0
tp3498
a(I30245181
I0
I0
tp3499
a(I30263295
I2
I0
tp3500
a(I30356880
I2
I0
tp3501
a(I30494810
I6
I0
tp3502
a(I30578605
I1
I0
tp3503
a(I30616479
I2
I0
tp3504
a(I30805539
I1
I1
tp3505
a(I30950398
I0
I1
tp3506
a(I30977821
I1
I0
tp3507
a(I30977821
I3
I0
tp3508
a(I31124970
I0
I1
tp3509
a(I31143856
I1
I0
tp3510
a(I31186960
I0
I1
tp3511
a(I31186960
I1
I1
tp3512
a(I31194265
I0
I0
tp3513
a(I31273373
I3
I0
tp3514
a(I31273373
I6
I0
tp3515
a(I31478205
I1
I1
tp3516
a(I31478205
I2
I1
tp3517
a(I31478205
I3
I1
tp3518
a(I31478205
I4
I1
tp3519
a(I31643835
I2
I1
tp3520
a(I31720854
I0
I0
tp3521
a(I31720854
I3
I0
tp3522
a(I31721962
I1
I0
tp3523
a(I31771130
I1
I1
tp3524
a(I31855759
I1
I0
tp3525
a(I31944662
I2
I1
tp3526
a(I31965908
I1
I1
tp3527
a(I31978339
I2
I0
tp3528
a(I32182160
I0
I1
tp3529
a(I32241284
I0
I0
tp3530
a(I32381393
I1
I1
tp3531
a(I32427391
I0
I0
tp3532
a(I32565311
I0
I1
tp3533
a(I32615598
I0
I1
tp3534
a(I32633252
I1
I1
tp3535
a(I32732880
I0
I0
tp3536
a(I32732880
I1
I1
tp3537
a(I32768245
I1
I1
tp3538
a(I32819225
I0
I1
tp3539
a(I32832623
I1
I0
tp3540
a(I32864721
I0
I1
tp3541
a(I32928624
I0
I0
tp3542
a(I32928624
I2
I0
tp3543
a(I32958815
I2
I0
tp3544
a(I32962508
I1
I1
tp3545
a(I33020243
I1
I1
tp3546
a(I33087355
I1
I1
tp3547
a(I33108437
I0
I1
tp3548
a(I33118186
I3
I0
tp3549
a(I33135937
I0
I1
tp3550
a(I33156695
I0
I1
tp3551
a(I33381751
I1
I1
tp3552
a(I33383829
I0
I1
tp3553
a(I33402664
I0
I0
tp3554
a(I33510248
I0
I0
tp3555
a(I33541995
I1
I1
tp3556
a(I33608191
I5
I0
tp3557
a(I33648148
I1
I0
tp3558
a(I33736568
I0
I1
tp3559
a(I33736568
I1
I1
tp3560
a(I33897526
I0
I0
tp3561
a(I33897526
I3
I0
tp3562
a(I33908143
I2
I1
tp3563
a(I33939688
I6
I0
tp3564
a(I33962020
I0
I1
tp3565
a(I34082441
I1
I0
tp3566
a(I34121399
I1
I0
tp3567
a(I34191191
I0
I1
tp3568
a(I34221483
I2
I0
tp3569
a(I34251134
I1
I1
tp3570
a(I34273934
I0
I1
tp3571
a(I34278143
I0
I1
tp3572
a(I34314266
I0
I0
tp3573
a(I34314266
I1
I0
tp3574
a(I34353369
I2
I1
tp3575
a(I34435022
I1
I1
tp3576
a(I34516501
I1
I0
tp3577
a(I34604707
I1
I0
tp3578
a(I34610639
I3
I1
tp3579
a(I34643471
I0
I1
tp3580
a(I34687839
I0
I1
tp3581
a(I34696374
I0
I1
tp3582
a(I34712380
I0
I1
tp3583
a(I34722021
I3
I0
tp3584
a(I34773830
I1
I1
tp3585
a(I34875353
I0
I0
tp3586
a(I34954765
I0
I1
tp3587
a(I35011175
I0
I1
tp3588
a(I35041250
I0
I1
tp3589
a(I35041250
I2
I0
tp3590
a(I35232556
I0
I0
tp3591
a(I35238887
I1
I1
tp3592
a(I35268549
I1
I0
tp3593
a(I35293084
I1
I1
tp3594
a(I35330341
I0
I1
tp3595
a(I35354450
I1
I0
tp3596
a(I35361258
I0
I1
tp3597
a(I35391959
I0
I1
tp3598
a(I35391959
I3
I1
tp3599
a(I35478088
I6
I0
tp3600
a(I35661363
I0
I0
tp3601
a(I35804288
I0
I1
tp3602
a(I35804288
I1
I1
tp3603
a(I35822621
I0
I1
tp3604
a(I35869713
I1
I0
tp3605
a(I35913338
I1
I0
tp3606
a(I36057894
I1
I1
tp3607
a(I36086980
I3
I1
tp3608
a(I36239016
I0
I0
tp3609
a(I36239016
I1
I0
tp3610
a(I36249094
I1
I1
tp3611
a(I36550777
I0
I1
tp3612
a(I36569182
I0
I1
tp3613
a(I36572728
I0
I1
tp3614
a(I36834990
I0
I1
tp3615
a(I36909436
I0
I1
tp3616
a(I36921158
I0
I0
tp3617
a(I37088208
I1
I1
tp3618
a(I37109635
I0
I0
tp3619
a(I37109635
I4
I0
tp3620
a(I37111927
I1
I1
tp3621
a(I37148559
I0
I0
tp3622
a(I37148559
I5
I0
tp3623
a(I37173392
I1
I0
tp3624
a(I37247507
I3
I0
tp3625
a(I37316901
I1
I1
tp3626
a(I37405073
I1
I1
tp3627
a(I37452486
I1
I0
tp3628
a(I37458399
I0
I1
tp3629
a(I37458399
I1
I0
tp3630
a(I37458399
I2
I1
tp3631
a(I37540721
I0
I1
tp3632
a(I37540721
I1
I0
tp3633
a(I37624090
I3
I1
tp3634
a(I37662540
I1
I0
tp3635
a(I37685156
I1
I1
tp3636
a(I37712305
I4
I0
tp3637
a.